
bin/avr.elf:     file format elf32-avr


Disassembly of section .text:

00000000 <__vectors>:
   0:	0c 94 79 00 	jmp	0xf2	; 0xf2 <__ctors_end>
   4:	0c 94 a2 03 	jmp	0x744	; 0x744 <__vector_1>
   8:	0c 94 96 00 	jmp	0x12c	; 0x12c <__bad_interrupt>
   c:	0c 94 96 00 	jmp	0x12c	; 0x12c <__bad_interrupt>
  10:	0c 94 96 00 	jmp	0x12c	; 0x12c <__bad_interrupt>
  14:	0c 94 96 00 	jmp	0x12c	; 0x12c <__bad_interrupt>
  18:	0c 94 96 00 	jmp	0x12c	; 0x12c <__bad_interrupt>
  1c:	0c 94 96 00 	jmp	0x12c	; 0x12c <__bad_interrupt>
  20:	0c 94 96 00 	jmp	0x12c	; 0x12c <__bad_interrupt>
  24:	0c 94 96 00 	jmp	0x12c	; 0x12c <__bad_interrupt>
  28:	0c 94 96 00 	jmp	0x12c	; 0x12c <__bad_interrupt>
  2c:	0c 94 96 00 	jmp	0x12c	; 0x12c <__bad_interrupt>
  30:	0c 94 96 00 	jmp	0x12c	; 0x12c <__bad_interrupt>
  34:	0c 94 96 00 	jmp	0x12c	; 0x12c <__bad_interrupt>
  38:	0c 94 96 00 	jmp	0x12c	; 0x12c <__bad_interrupt>
  3c:	0c 94 96 00 	jmp	0x12c	; 0x12c <__bad_interrupt>
  40:	0c 94 96 00 	jmp	0x12c	; 0x12c <__bad_interrupt>
  44:	0c 94 96 00 	jmp	0x12c	; 0x12c <__bad_interrupt>
  48:	0c 94 99 01 	jmp	0x332	; 0x332 <__vector_18>
  4c:	0c 94 5c 01 	jmp	0x2b8	; 0x2b8 <__vector_19>
  50:	0c 94 96 00 	jmp	0x12c	; 0x12c <__bad_interrupt>
  54:	0c 94 96 00 	jmp	0x12c	; 0x12c <__bad_interrupt>
  58:	0c 94 96 00 	jmp	0x12c	; 0x12c <__bad_interrupt>
  5c:	0c 94 96 00 	jmp	0x12c	; 0x12c <__bad_interrupt>
  60:	0c 94 96 00 	jmp	0x12c	; 0x12c <__bad_interrupt>
  64:	0c 94 96 00 	jmp	0x12c	; 0x12c <__bad_interrupt>

00000068 <__trampolines_end>:
  68:	05 01       	movw	r0, r10
  6a:	09 02       	muls	r16, r25
  6c:	a1 01       	movw	r20, r2
  6e:	09 01       	movw	r0, r18
  70:	a1 00       	.word	0x00a1	; ????
  72:	05 09       	sbc	r16, r5
  74:	19 01       	movw	r2, r18
  76:	29 03       	fmul	r18, r17
  78:	15 00       	.word	0x0015	; ????
  7a:	25 01       	movw	r4, r10
  7c:	95 03       	fmuls	r17, r21
  7e:	75 01       	movw	r14, r10
  80:	81 02       	muls	r24, r17
  82:	95 01       	movw	r18, r10
  84:	75 05       	cpc	r23, r5
  86:	81 03       	fmuls	r16, r17
  88:	05 01       	movw	r0, r10
  8a:	09 30       	cpi	r16, 0x09	; 9
  8c:	09 31       	cpi	r16, 0x19	; 25
  8e:	09 38       	cpi	r16, 0x89	; 137
  90:	15 81       	ldd	r17, Z+5	; 0x05
  92:	25 7f       	andi	r18, 0xF5	; 245
  94:	75 08       	sbc	r7, r5
  96:	95 03       	fmuls	r17, r21
  98:	81 06       	cpc	r8, r17
  9a:	c0 c0       	rjmp	.+384    	; 0x21c <serialWrite+0x36>

0000009c <usbDescriptorConfiguration>:
  9c:	09 02 22 00 01 01 00 80 0a 09 04 00 00 01 03 00     ..".............
  ac:	00 00 09 21 01 01 00 01 22 34 00 07 05 81 03 08     ...!...."4......
  bc:	00 64                                               .d

000000be <usbDescriptorDevice>:
  be:	12 01 10 01 00 00 00 08 c0 16 e8 02 00 01 01 02     ................
  ce:	00 01                                               ..

000000d0 <usbDescriptorStringDevice>:
  d0:	0c 03 4d 00 6f 00 75 00 73 00 65 00                 ..M.o.u.s.e.

000000dc <usbDescriptorStringVendor>:
  dc:	12 03 6f 00 62 00 64 00 65 00 76 00 2e 00 61 00     ..o.b.d.e.v...a.
  ec:	74 00                                               t.

000000ee <usbDescriptorString0>:
  ee:	04 03 09 04                                         ....

000000f2 <__ctors_end>:
  f2:	11 24       	eor	r1, r1
  f4:	1f be       	out	0x3f, r1	; 63
  f6:	cf ef       	ldi	r28, 0xFF	; 255
  f8:	d8 e0       	ldi	r29, 0x08	; 8
  fa:	de bf       	out	0x3e, r29	; 62
  fc:	cd bf       	out	0x3d, r28	; 61

000000fe <__do_copy_data>:
  fe:	11 e0       	ldi	r17, 0x01	; 1
 100:	a0 e0       	ldi	r26, 0x00	; 0
 102:	b1 e0       	ldi	r27, 0x01	; 1
 104:	e4 e7       	ldi	r30, 0x74	; 116
 106:	fc e0       	ldi	r31, 0x0C	; 12
 108:	02 c0       	rjmp	.+4      	; 0x10e <__do_copy_data+0x10>
 10a:	05 90       	lpm	r0, Z+
 10c:	0d 92       	st	X+, r0
 10e:	a2 34       	cpi	r26, 0x42	; 66
 110:	b1 07       	cpc	r27, r17
 112:	d9 f7       	brne	.-10     	; 0x10a <__do_copy_data+0xc>

00000114 <__do_clear_bss>:
 114:	21 e0       	ldi	r18, 0x01	; 1
 116:	a2 e4       	ldi	r26, 0x42	; 66
 118:	b1 e0       	ldi	r27, 0x01	; 1
 11a:	01 c0       	rjmp	.+2      	; 0x11e <.do_clear_bss_start>

0000011c <.do_clear_bss_loop>:
 11c:	1d 92       	st	X+, r1

0000011e <.do_clear_bss_start>:
 11e:	a1 38       	cpi	r26, 0x81	; 129
 120:	b2 07       	cpc	r27, r18
 122:	e1 f7       	brne	.-8      	; 0x11c <.do_clear_bss_loop>
 124:	0e 94 c3 04 	call	0x986	; 0x986 <main>
 128:	0c 94 38 06 	jmp	0xc70	; 0xc70 <_exit>

0000012c <__bad_interrupt>:
 12c:	0c 94 00 00 	jmp	0	; 0x0 <__vectors>

00000130 <reg>:
 130:	08 95       	ret

00000132 <put>:
 132:	68 2f       	mov	r22, r24
 134:	88 e0       	ldi	r24, 0x08	; 8
 136:	91 e0       	ldi	r25, 0x01	; 1
 138:	0e 94 c1 01 	call	0x382	; 0x382 <fifoPush>
 13c:	e0 ec       	ldi	r30, 0xC0	; 192
 13e:	f0 e0       	ldi	r31, 0x00	; 0
 140:	81 81       	ldd	r24, Z+1	; 0x01
 142:	88 62       	ori	r24, 0x28	; 40
 144:	81 83       	std	Z+1, r24	; 0x01
 146:	08 95       	ret

00000148 <serialInit>:
 148:	cf 92       	push	r12
 14a:	df 92       	push	r13
 14c:	ef 92       	push	r14
 14e:	ff 92       	push	r15
 150:	cf 93       	push	r28
 152:	df 93       	push	r29
 154:	ec 01       	movw	r28, r24
 156:	6a 01       	movw	r12, r20
 158:	7b 01       	movw	r14, r22
 15a:	60 e4       	ldi	r22, 0x40	; 64
 15c:	72 e4       	ldi	r23, 0x42	; 66
 15e:	8f e0       	ldi	r24, 0x0F	; 15
 160:	90 e0       	ldi	r25, 0x00	; 0
 162:	a7 01       	movw	r20, r14
 164:	96 01       	movw	r18, r12
 166:	0e 94 ef 04 	call	0x9de	; 0x9de <__udivmodsi4>
 16a:	21 50       	subi	r18, 0x01	; 1
 16c:	31 09       	sbc	r19, r1
 16e:	41 09       	sbc	r20, r1
 170:	51 09       	sbc	r21, r1
 172:	e0 ec       	ldi	r30, 0xC0	; 192
 174:	f0 e0       	ldi	r31, 0x00	; 0
 176:	24 83       	std	Z+4, r18	; 0x04
 178:	bb 27       	eor	r27, r27
 17a:	a5 2f       	mov	r26, r21
 17c:	94 2f       	mov	r25, r20
 17e:	83 2f       	mov	r24, r19
 180:	85 83       	std	Z+5, r24	; 0x05
 182:	cc 82       	std	Y+4, r12	; 0x04
 184:	dd 82       	std	Y+5, r13	; 0x05
 186:	ee 82       	std	Y+6, r14	; 0x06
 188:	ff 82       	std	Y+7, r15	; 0x07
 18a:	60 e4       	ldi	r22, 0x40	; 64
 18c:	70 e0       	ldi	r23, 0x00	; 0
 18e:	ce 01       	movw	r24, r28
 190:	08 96       	adiw	r24, 0x08	; 8
 192:	df 91       	pop	r29
 194:	cf 91       	pop	r28
 196:	ff 90       	pop	r15
 198:	ef 90       	pop	r14
 19a:	df 90       	pop	r13
 19c:	cf 90       	pop	r12
 19e:	0c 94 a3 01 	jmp	0x346	; 0x346 <fifoInit>

000001a2 <serialWriteBlocking>:
 1a2:	80 91 c1 00 	lds	r24, 0x00C1
 1a6:	88 60       	ori	r24, 0x08	; 8
 1a8:	80 93 c1 00 	sts	0x00C1, r24
 1ac:	80 91 c0 00 	lds	r24, 0x00C0
 1b0:	80 64       	ori	r24, 0x40	; 64
 1b2:	80 93 c0 00 	sts	0x00C0, r24
 1b6:	fa 01       	movw	r30, r20
 1b8:	64 0f       	add	r22, r20
 1ba:	75 1f       	adc	r23, r21
 1bc:	e6 17       	cp	r30, r22
 1be:	f7 07       	cpc	r31, r23
 1c0:	41 f0       	breq	.+16     	; 0x1d2 <serialWriteBlocking+0x30>
 1c2:	81 91       	ld	r24, Z+
 1c4:	80 93 c6 00 	sts	0x00C6, r24
 1c8:	80 91 c0 00 	lds	r24, 0x00C0
 1cc:	85 ff       	sbrs	r24, 5
 1ce:	fc cf       	rjmp	.-8      	; 0x1c8 <serialWriteBlocking+0x26>
 1d0:	f5 cf       	rjmp	.-22     	; 0x1bc <serialWriteBlocking+0x1a>
 1d2:	80 91 c0 00 	lds	r24, 0x00C0
 1d6:	86 ff       	sbrs	r24, 6
 1d8:	fc cf       	rjmp	.-8      	; 0x1d2 <serialWriteBlocking+0x30>
 1da:	80 91 c1 00 	lds	r24, 0x00C1
 1de:	87 7f       	andi	r24, 0xF7	; 247
 1e0:	80 93 c1 00 	sts	0x00C1, r24
 1e4:	08 95       	ret

000001e6 <serialWrite>:
 1e6:	cf 92       	push	r12
 1e8:	df 92       	push	r13
 1ea:	ef 92       	push	r14
 1ec:	ff 92       	push	r15
 1ee:	0f 93       	push	r16
 1f0:	1f 93       	push	r17
 1f2:	cf 93       	push	r28
 1f4:	df 93       	push	r29
 1f6:	6b 01       	movw	r12, r22
 1f8:	8a 01       	movw	r16, r20
 1fa:	61 15       	cp	r22, r1
 1fc:	71 05       	cpc	r23, r1
 1fe:	f9 f0       	breq	.+62     	; 0x23e <serialWrite+0x58>
 200:	7c 01       	movw	r14, r24
 202:	28 e0       	ldi	r18, 0x08	; 8
 204:	e2 0e       	add	r14, r18
 206:	f1 1c       	adc	r15, r1
 208:	f8 01       	movw	r30, r16
 20a:	60 81       	ld	r22, Z
 20c:	c7 01       	movw	r24, r14
 20e:	0e 94 c1 01 	call	0x382	; 0x382 <fifoPush>
 212:	81 11       	cpse	r24, r1
 214:	f9 cf       	rjmp	.-14     	; 0x208 <serialWrite+0x22>
 216:	80 91 c1 00 	lds	r24, 0x00C1
 21a:	88 62       	ori	r24, 0x28	; 40
 21c:	80 93 c1 00 	sts	0x00C1, r24
 220:	e8 01       	movw	r28, r16
 222:	21 96       	adiw	r28, 0x01	; 1
 224:	0c 0d       	add	r16, r12
 226:	1d 1d       	adc	r17, r13
 228:	c0 17       	cp	r28, r16
 22a:	d1 07       	cpc	r29, r17
 22c:	41 f0       	breq	.+16     	; 0x23e <serialWrite+0x58>
 22e:	68 81       	ld	r22, Y
 230:	c7 01       	movw	r24, r14
 232:	0e 94 c1 01 	call	0x382	; 0x382 <fifoPush>
 236:	81 11       	cpse	r24, r1
 238:	fa cf       	rjmp	.-12     	; 0x22e <serialWrite+0x48>
 23a:	21 96       	adiw	r28, 0x01	; 1
 23c:	f5 cf       	rjmp	.-22     	; 0x228 <serialWrite+0x42>
 23e:	df 91       	pop	r29
 240:	cf 91       	pop	r28
 242:	1f 91       	pop	r17
 244:	0f 91       	pop	r16
 246:	ff 90       	pop	r15
 248:	ef 90       	pop	r14
 24a:	df 90       	pop	r13
 24c:	cf 90       	pop	r12
 24e:	08 95       	ret

00000250 <serialWriteI>:
 250:	bf 92       	push	r11
 252:	cf 92       	push	r12
 254:	df 92       	push	r13
 256:	ef 92       	push	r14
 258:	ff 92       	push	r15
 25a:	0f 93       	push	r16
 25c:	1f 93       	push	r17
 25e:	cf 93       	push	r28
 260:	df 93       	push	r29
 262:	7b 01       	movw	r14, r22
 264:	6a 01       	movw	r12, r20
 266:	61 15       	cp	r22, r1
 268:	71 05       	cpc	r23, r1
 26a:	d9 f0       	breq	.+54     	; 0x2a2 <serialWriteI+0x52>
 26c:	8c 01       	movw	r16, r24
 26e:	08 5f       	subi	r16, 0xF8	; 248
 270:	1f 4f       	sbci	r17, 0xFF	; 255
 272:	ea 01       	movw	r28, r20
 274:	69 91       	ld	r22, Y+
 276:	c8 01       	movw	r24, r16
 278:	0e 94 c1 01 	call	0x382	; 0x382 <fifoPush>
 27c:	b8 2e       	mov	r11, r24
 27e:	80 91 c1 00 	lds	r24, 0x00C1
 282:	88 62       	ori	r24, 0x28	; 40
 284:	80 93 c1 00 	sts	0x00C1, r24
 288:	ec 0c       	add	r14, r12
 28a:	fd 1c       	adc	r15, r13
 28c:	ce 15       	cp	r28, r14
 28e:	df 05       	cpc	r29, r15
 290:	31 f0       	breq	.+12     	; 0x29e <serialWriteI+0x4e>
 292:	69 91       	ld	r22, Y+
 294:	c8 01       	movw	r24, r16
 296:	0e 94 c1 01 	call	0x382	; 0x382 <fifoPush>
 29a:	b8 2a       	or	r11, r24
 29c:	f7 cf       	rjmp	.-18     	; 0x28c <serialWriteI+0x3c>
 29e:	8b 2d       	mov	r24, r11
 2a0:	01 c0       	rjmp	.+2      	; 0x2a4 <serialWriteI+0x54>
 2a2:	80 e0       	ldi	r24, 0x00	; 0
 2a4:	df 91       	pop	r29
 2a6:	cf 91       	pop	r28
 2a8:	1f 91       	pop	r17
 2aa:	0f 91       	pop	r16
 2ac:	ff 90       	pop	r15
 2ae:	ef 90       	pop	r14
 2b0:	df 90       	pop	r13
 2b2:	cf 90       	pop	r12
 2b4:	bf 90       	pop	r11
 2b6:	08 95       	ret

000002b8 <__vector_19>:
 2b8:	1f 92       	push	r1
 2ba:	0f 92       	push	r0
 2bc:	0f b6       	in	r0, 0x3f	; 63
 2be:	0f 92       	push	r0
 2c0:	11 24       	eor	r1, r1
 2c2:	2f 93       	push	r18
 2c4:	3f 93       	push	r19
 2c6:	4f 93       	push	r20
 2c8:	5f 93       	push	r21
 2ca:	6f 93       	push	r22
 2cc:	7f 93       	push	r23
 2ce:	8f 93       	push	r24
 2d0:	9f 93       	push	r25
 2d2:	af 93       	push	r26
 2d4:	bf 93       	push	r27
 2d6:	ef 93       	push	r30
 2d8:	ff 93       	push	r31
 2da:	20 91 0a 01 	lds	r18, 0x010A
 2de:	30 91 0b 01 	lds	r19, 0x010B
 2e2:	80 91 0c 01 	lds	r24, 0x010C
 2e6:	90 91 0d 01 	lds	r25, 0x010D
 2ea:	28 17       	cp	r18, r24
 2ec:	39 07       	cpc	r19, r25
 2ee:	31 f4       	brne	.+12     	; 0x2fc <__vector_19+0x44>
 2f0:	80 91 0e 01 	lds	r24, 0x010E
 2f4:	90 91 0f 01 	lds	r25, 0x010F
 2f8:	89 2b       	or	r24, r25
 2fa:	29 f0       	breq	.+10     	; 0x306 <__vector_19+0x4e>
 2fc:	88 e0       	ldi	r24, 0x08	; 8
 2fe:	91 e0       	ldi	r25, 0x01	; 1
 300:	0e 94 e9 01 	call	0x3d2	; 0x3d2 <fifoPop>
 304:	03 c0       	rjmp	.+6      	; 0x30c <__vector_19+0x54>
 306:	80 91 c6 00 	lds	r24, 0x00C6
 30a:	87 7f       	andi	r24, 0xF7	; 247
 30c:	80 93 c6 00 	sts	0x00C6, r24
 310:	ff 91       	pop	r31
 312:	ef 91       	pop	r30
 314:	bf 91       	pop	r27
 316:	af 91       	pop	r26
 318:	9f 91       	pop	r25
 31a:	8f 91       	pop	r24
 31c:	7f 91       	pop	r23
 31e:	6f 91       	pop	r22
 320:	5f 91       	pop	r21
 322:	4f 91       	pop	r20
 324:	3f 91       	pop	r19
 326:	2f 91       	pop	r18
 328:	0f 90       	pop	r0
 32a:	0f be       	out	0x3f, r0	; 63
 32c:	0f 90       	pop	r0
 32e:	1f 90       	pop	r1
 330:	18 95       	reti

00000332 <__vector_18>:
 332:	1f 92       	push	r1
 334:	0f 92       	push	r0
 336:	0f b6       	in	r0, 0x3f	; 63
 338:	0f 92       	push	r0
 33a:	11 24       	eor	r1, r1
 33c:	0f 90       	pop	r0
 33e:	0f be       	out	0x3f, r0	; 63
 340:	0f 90       	pop	r0
 342:	1f 90       	pop	r1
 344:	18 95       	reti

00000346 <fifoInit>:
 346:	0f 93       	push	r16
 348:	1f 93       	push	r17
 34a:	cf 93       	push	r28
 34c:	df 93       	push	r29
 34e:	ec 01       	movw	r28, r24
 350:	8b 01       	movw	r16, r22
 352:	88 81       	ld	r24, Y
 354:	99 81       	ldd	r25, Y+1	; 0x01
 356:	00 97       	sbiw	r24, 0x00	; 0
 358:	11 f0       	breq	.+4      	; 0x35e <fifoInit+0x18>
 35a:	0e 94 a9 05 	call	0xb52	; 0xb52 <free>
 35e:	c8 01       	movw	r24, r16
 360:	0e 94 11 05 	call	0xa22	; 0xa22 <malloc>
 364:	99 83       	std	Y+1, r25	; 0x01
 366:	88 83       	st	Y, r24
 368:	1f 82       	std	Y+7, r1	; 0x07
 36a:	1e 82       	std	Y+6, r1	; 0x06
 36c:	1d 82       	std	Y+5, r1	; 0x05
 36e:	1c 82       	std	Y+4, r1	; 0x04
 370:	1b 82       	std	Y+3, r1	; 0x03
 372:	1a 82       	std	Y+2, r1	; 0x02
 374:	19 87       	std	Y+9, r17	; 0x09
 376:	08 87       	std	Y+8, r16	; 0x08
 378:	df 91       	pop	r29
 37a:	cf 91       	pop	r28
 37c:	1f 91       	pop	r17
 37e:	0f 91       	pop	r16
 380:	08 95       	ret

00000382 <fifoPush>:
 382:	fc 01       	movw	r30, r24
 384:	84 81       	ldd	r24, Z+4	; 0x04
 386:	95 81       	ldd	r25, Z+5	; 0x05
 388:	22 81       	ldd	r18, Z+2	; 0x02
 38a:	33 81       	ldd	r19, Z+3	; 0x03
 38c:	28 17       	cp	r18, r24
 38e:	39 07       	cpc	r19, r25
 390:	29 f4       	brne	.+10     	; 0x39c <fifoPush+0x1a>
 392:	26 81       	ldd	r18, Z+6	; 0x06
 394:	37 81       	ldd	r19, Z+7	; 0x07
 396:	21 30       	cpi	r18, 0x01	; 1
 398:	31 05       	cpc	r19, r1
 39a:	b9 f0       	breq	.+46     	; 0x3ca <fifoPush+0x48>
 39c:	a0 81       	ld	r26, Z
 39e:	b1 81       	ldd	r27, Z+1	; 0x01
 3a0:	a8 0f       	add	r26, r24
 3a2:	b9 1f       	adc	r27, r25
 3a4:	6c 93       	st	X, r22
 3a6:	84 81       	ldd	r24, Z+4	; 0x04
 3a8:	95 81       	ldd	r25, Z+5	; 0x05
 3aa:	01 96       	adiw	r24, 0x01	; 1
 3ac:	95 83       	std	Z+5, r25	; 0x05
 3ae:	84 83       	std	Z+4, r24	; 0x04
 3b0:	20 85       	ldd	r18, Z+8	; 0x08
 3b2:	31 85       	ldd	r19, Z+9	; 0x09
 3b4:	82 17       	cp	r24, r18
 3b6:	93 07       	cpc	r25, r19
 3b8:	51 f4       	brne	.+20     	; 0x3ce <fifoPush+0x4c>
 3ba:	15 82       	std	Z+5, r1	; 0x05
 3bc:	14 82       	std	Z+4, r1	; 0x04
 3be:	86 81       	ldd	r24, Z+6	; 0x06
 3c0:	97 81       	ldd	r25, Z+7	; 0x07
 3c2:	01 96       	adiw	r24, 0x01	; 1
 3c4:	97 83       	std	Z+7, r25	; 0x07
 3c6:	86 83       	std	Z+6, r24	; 0x06
 3c8:	02 c0       	rjmp	.+4      	; 0x3ce <fifoPush+0x4c>
 3ca:	8f ef       	ldi	r24, 0xFF	; 255
 3cc:	08 95       	ret
 3ce:	80 e0       	ldi	r24, 0x00	; 0
 3d0:	08 95       	ret

000003d2 <fifoPop>:
 3d2:	fc 01       	movw	r30, r24
 3d4:	22 81       	ldd	r18, Z+2	; 0x02
 3d6:	33 81       	ldd	r19, Z+3	; 0x03
 3d8:	a0 81       	ld	r26, Z
 3da:	b1 81       	ldd	r27, Z+1	; 0x01
 3dc:	a2 0f       	add	r26, r18
 3de:	b3 1f       	adc	r27, r19
 3e0:	8c 91       	ld	r24, X
 3e2:	2f 5f       	subi	r18, 0xFF	; 255
 3e4:	3f 4f       	sbci	r19, 0xFF	; 255
 3e6:	33 83       	std	Z+3, r19	; 0x03
 3e8:	22 83       	std	Z+2, r18	; 0x02
 3ea:	40 85       	ldd	r20, Z+8	; 0x08
 3ec:	51 85       	ldd	r21, Z+9	; 0x09
 3ee:	24 17       	cp	r18, r20
 3f0:	35 07       	cpc	r19, r21
 3f2:	41 f4       	brne	.+16     	; 0x404 <fifoPop+0x32>
 3f4:	13 82       	std	Z+3, r1	; 0x03
 3f6:	12 82       	std	Z+2, r1	; 0x02
 3f8:	26 81       	ldd	r18, Z+6	; 0x06
 3fa:	37 81       	ldd	r19, Z+7	; 0x07
 3fc:	21 50       	subi	r18, 0x01	; 1
 3fe:	31 09       	sbc	r19, r1
 400:	37 83       	std	Z+7, r19	; 0x07
 402:	26 83       	std	Z+6, r18	; 0x06
 404:	08 95       	ret

00000406 <fifoPopBack>:
 406:	fc 01       	movw	r30, r24
 408:	84 81       	ldd	r24, Z+4	; 0x04
 40a:	95 81       	ldd	r25, Z+5	; 0x05
 40c:	89 2b       	or	r24, r25
 40e:	51 f4       	brne	.+20     	; 0x424 <fifoPopBack+0x1e>
 410:	80 85       	ldd	r24, Z+8	; 0x08
 412:	91 85       	ldd	r25, Z+9	; 0x09
 414:	01 97       	sbiw	r24, 0x01	; 1
 416:	95 83       	std	Z+5, r25	; 0x05
 418:	84 83       	std	Z+4, r24	; 0x04
 41a:	86 81       	ldd	r24, Z+6	; 0x06
 41c:	97 81       	ldd	r25, Z+7	; 0x07
 41e:	01 97       	sbiw	r24, 0x01	; 1
 420:	97 83       	std	Z+7, r25	; 0x07
 422:	86 83       	std	Z+6, r24	; 0x06
 424:	84 81       	ldd	r24, Z+4	; 0x04
 426:	95 81       	ldd	r25, Z+5	; 0x05
 428:	01 97       	sbiw	r24, 0x01	; 1
 42a:	95 83       	std	Z+5, r25	; 0x05
 42c:	84 83       	std	Z+4, r24	; 0x04
 42e:	01 90       	ld	r0, Z+
 430:	f0 81       	ld	r31, Z
 432:	e0 2d       	mov	r30, r0
 434:	e8 0f       	add	r30, r24
 436:	f9 1f       	adc	r31, r25
 438:	80 81       	ld	r24, Z
 43a:	08 95       	ret

0000043c <usbFunctionSetup>:
 43c:	fc 01       	movw	r30, r24
 43e:	80 81       	ld	r24, Z
 440:	80 76       	andi	r24, 0x60	; 96
 442:	80 32       	cpi	r24, 0x20	; 32
 444:	d1 f4       	brne	.+52     	; 0x47a <usbFunctionSetup+0x3e>
 446:	81 81       	ldd	r24, Z+1	; 0x01
 448:	81 30       	cpi	r24, 0x01	; 1
 44a:	41 f4       	brne	.+16     	; 0x45c <usbFunctionSetup+0x20>
 44c:	82 e4       	ldi	r24, 0x42	; 66
 44e:	91 e0       	ldi	r25, 0x01	; 1
 450:	90 93 62 01 	sts	0x0162, r25
 454:	80 93 61 01 	sts	0x0161, r24
 458:	84 e0       	ldi	r24, 0x04	; 4
 45a:	08 95       	ret
 45c:	82 30       	cpi	r24, 0x02	; 2
 45e:	41 f4       	brne	.+16     	; 0x470 <usbFunctionSetup+0x34>
 460:	82 e1       	ldi	r24, 0x12	; 18
 462:	91 e0       	ldi	r25, 0x01	; 1
 464:	90 93 62 01 	sts	0x0162, r25
 468:	80 93 61 01 	sts	0x0161, r24
 46c:	81 e0       	ldi	r24, 0x01	; 1
 46e:	08 95       	ret
 470:	8a 30       	cpi	r24, 0x0A	; 10
 472:	19 f4       	brne	.+6      	; 0x47a <usbFunctionSetup+0x3e>
 474:	83 81       	ldd	r24, Z+3	; 0x03
 476:	80 93 12 01 	sts	0x0112, r24
 47a:	80 e0       	ldi	r24, 0x00	; 0
 47c:	08 95       	ret

0000047e <updateUSB>:
 47e:	0e 94 73 02 	call	0x4e6	; 0x4e6 <usbPoll>
 482:	80 91 52 01 	lds	r24, 0x0152
 486:	84 ff       	sbrs	r24, 4
 488:	08 c0       	rjmp	.+16     	; 0x49a <updateUSB+0x1c>
 48a:	81 e0       	ldi	r24, 0x01	; 1
 48c:	80 93 43 01 	sts	0x0143, r24
 490:	64 e0       	ldi	r22, 0x04	; 4
 492:	82 e4       	ldi	r24, 0x42	; 66
 494:	91 e0       	ldi	r25, 0x01	; 1
 496:	0c 94 4e 02 	jmp	0x49c	; 0x49c <usbSetInterrupt>
 49a:	08 95       	ret

0000049c <usbSetInterrupt>:
 49c:	cf 93       	push	r28
 49e:	c6 2f       	mov	r28, r22
 4a0:	20 91 52 01 	lds	r18, 0x0152
 4a4:	24 ff       	sbrs	r18, 4
 4a6:	07 c0       	rjmp	.+14     	; 0x4b6 <usbSetInterrupt+0x1a>
 4a8:	20 91 53 01 	lds	r18, 0x0153
 4ac:	38 e8       	ldi	r19, 0x88	; 136
 4ae:	23 27       	eor	r18, r19
 4b0:	20 93 53 01 	sts	0x0153, r18
 4b4:	03 c0       	rjmp	.+6      	; 0x4bc <usbSetInterrupt+0x20>
 4b6:	2a e5       	ldi	r18, 0x5A	; 90
 4b8:	20 93 52 01 	sts	0x0152, r18
 4bc:	dc 01       	movw	r26, r24
 4be:	e4 e5       	ldi	r30, 0x54	; 84
 4c0:	f1 e0       	ldi	r31, 0x01	; 1
 4c2:	9c 2f       	mov	r25, r28
 4c4:	9e 0f       	add	r25, r30
 4c6:	8d 91       	ld	r24, X+
 4c8:	81 93       	st	Z+, r24
 4ca:	89 2f       	mov	r24, r25
 4cc:	8e 1b       	sub	r24, r30
 4ce:	18 16       	cp	r1, r24
 4d0:	d4 f3       	brlt	.-12     	; 0x4c6 <usbSetInterrupt+0x2a>
 4d2:	6c 2f       	mov	r22, r28
 4d4:	84 e5       	ldi	r24, 0x54	; 84
 4d6:	91 e0       	ldi	r25, 0x01	; 1
 4d8:	0e 94 9e 03 	call	0x73c	; 0x73c <usbCrc16Append>
 4dc:	cc 5f       	subi	r28, 0xFC	; 252
 4de:	c0 93 52 01 	sts	0x0152, r28
 4e2:	cf 91       	pop	r28
 4e4:	08 95       	ret

000004e6 <usbPoll>:
 4e6:	cf 93       	push	r28
 4e8:	df 93       	push	r29
 4ea:	80 91 63 01 	lds	r24, 0x0163
 4ee:	83 50       	subi	r24, 0x03	; 3
 4f0:	87 fd       	sbrc	r24, 7
 4f2:	a4 c0       	rjmp	.+328    	; 0x63c <usbPoll+0x156>
 4f4:	90 91 60 01 	lds	r25, 0x0160
 4f8:	20 91 5f 01 	lds	r18, 0x015F
 4fc:	2d 32       	cpi	r18, 0x2D	; 45
 4fe:	09 f0       	breq	.+2      	; 0x502 <usbPoll+0x1c>
 500:	9b c0       	rjmp	.+310    	; 0x638 <usbPoll+0x152>
 502:	88 30       	cpi	r24, 0x08	; 8
 504:	09 f0       	breq	.+2      	; 0x508 <usbPoll+0x22>
 506:	98 c0       	rjmp	.+304    	; 0x638 <usbPoll+0x152>
 508:	cc e0       	ldi	r28, 0x0C	; 12
 50a:	d0 e0       	ldi	r29, 0x00	; 0
 50c:	c9 1b       	sub	r28, r25
 50e:	d1 09       	sbc	r29, r1
 510:	c9 59       	subi	r28, 0x99	; 153
 512:	de 4f       	sbci	r29, 0xFE	; 254
 514:	83 ec       	ldi	r24, 0xC3	; 195
 516:	80 93 47 01 	sts	0x0147, r24
 51a:	8a e5       	ldi	r24, 0x5A	; 90
 51c:	80 93 14 01 	sts	0x0114, r24
 520:	10 92 46 01 	sts	0x0146, r1
 524:	88 81       	ld	r24, Y
 526:	80 76       	andi	r24, 0x60	; 96
 528:	21 f0       	breq	.+8      	; 0x532 <usbPoll+0x4c>
 52a:	ce 01       	movw	r24, r28
 52c:	0e 94 1e 02 	call	0x43c	; 0x43c <usbFunctionSetup>
 530:	7a c0       	rjmp	.+244    	; 0x626 <usbPoll+0x140>
 532:	9a 81       	ldd	r25, Y+2	; 0x02
 534:	10 92 50 01 	sts	0x0150, r1
 538:	89 81       	ldd	r24, Y+1	; 0x01
 53a:	81 11       	cpse	r24, r1
 53c:	06 c0       	rjmp	.+12     	; 0x54a <usbPoll+0x64>
 53e:	10 92 51 01 	sts	0x0151, r1
 542:	20 e5       	ldi	r18, 0x50	; 80
 544:	31 e0       	ldi	r19, 0x01	; 1
 546:	82 e0       	ldi	r24, 0x02	; 2
 548:	6a c0       	rjmp	.+212    	; 0x61e <usbPoll+0x138>
 54a:	85 30       	cpi	r24, 0x05	; 5
 54c:	19 f4       	brne	.+6      	; 0x554 <usbPoll+0x6e>
 54e:	90 93 64 01 	sts	0x0164, r25
 552:	62 c0       	rjmp	.+196    	; 0x618 <usbPoll+0x132>
 554:	86 30       	cpi	r24, 0x06	; 6
 556:	09 f0       	breq	.+2      	; 0x55a <usbPoll+0x74>
 558:	49 c0       	rjmp	.+146    	; 0x5ec <usbPoll+0x106>
 55a:	8b 81       	ldd	r24, Y+3	; 0x03
 55c:	81 30       	cpi	r24, 0x01	; 1
 55e:	19 f4       	brne	.+6      	; 0x566 <usbPoll+0x80>
 560:	8e eb       	ldi	r24, 0xBE	; 190
 562:	90 e0       	ldi	r25, 0x00	; 0
 564:	1a c0       	rjmp	.+52     	; 0x59a <usbPoll+0xb4>
 566:	82 30       	cpi	r24, 0x02	; 2
 568:	41 f4       	brne	.+16     	; 0x57a <usbPoll+0x94>
 56a:	8c e9       	ldi	r24, 0x9C	; 156
 56c:	90 e0       	ldi	r25, 0x00	; 0
 56e:	90 93 62 01 	sts	0x0162, r25
 572:	80 93 61 01 	sts	0x0161, r24
 576:	82 e2       	ldi	r24, 0x22	; 34
 578:	35 c0       	rjmp	.+106    	; 0x5e4 <usbPoll+0xfe>
 57a:	83 30       	cpi	r24, 0x03	; 3
 57c:	f1 f4       	brne	.+60     	; 0x5ba <usbPoll+0xd4>
 57e:	91 11       	cpse	r25, r1
 580:	08 c0       	rjmp	.+16     	; 0x592 <usbPoll+0xac>
 582:	8e ee       	ldi	r24, 0xEE	; 238
 584:	90 e0       	ldi	r25, 0x00	; 0
 586:	90 93 62 01 	sts	0x0162, r25
 58a:	80 93 61 01 	sts	0x0161, r24
 58e:	84 e0       	ldi	r24, 0x04	; 4
 590:	29 c0       	rjmp	.+82     	; 0x5e4 <usbPoll+0xfe>
 592:	91 30       	cpi	r25, 0x01	; 1
 594:	41 f4       	brne	.+16     	; 0x5a6 <usbPoll+0xc0>
 596:	8c ed       	ldi	r24, 0xDC	; 220
 598:	90 e0       	ldi	r25, 0x00	; 0
 59a:	90 93 62 01 	sts	0x0162, r25
 59e:	80 93 61 01 	sts	0x0161, r24
 5a2:	82 e1       	ldi	r24, 0x12	; 18
 5a4:	1f c0       	rjmp	.+62     	; 0x5e4 <usbPoll+0xfe>
 5a6:	92 30       	cpi	r25, 0x02	; 2
 5a8:	e1 f4       	brne	.+56     	; 0x5e2 <usbPoll+0xfc>
 5aa:	80 ed       	ldi	r24, 0xD0	; 208
 5ac:	90 e0       	ldi	r25, 0x00	; 0
 5ae:	90 93 62 01 	sts	0x0162, r25
 5b2:	80 93 61 01 	sts	0x0161, r24
 5b6:	8c e0       	ldi	r24, 0x0C	; 12
 5b8:	15 c0       	rjmp	.+42     	; 0x5e4 <usbPoll+0xfe>
 5ba:	81 32       	cpi	r24, 0x21	; 33
 5bc:	41 f4       	brne	.+16     	; 0x5ce <usbPoll+0xe8>
 5be:	8e ea       	ldi	r24, 0xAE	; 174
 5c0:	90 e0       	ldi	r25, 0x00	; 0
 5c2:	90 93 62 01 	sts	0x0162, r25
 5c6:	80 93 61 01 	sts	0x0161, r24
 5ca:	89 e0       	ldi	r24, 0x09	; 9
 5cc:	0b c0       	rjmp	.+22     	; 0x5e4 <usbPoll+0xfe>
 5ce:	82 32       	cpi	r24, 0x22	; 34
 5d0:	41 f4       	brne	.+16     	; 0x5e2 <usbPoll+0xfc>
 5d2:	88 e6       	ldi	r24, 0x68	; 104
 5d4:	90 e0       	ldi	r25, 0x00	; 0
 5d6:	90 93 62 01 	sts	0x0162, r25
 5da:	80 93 61 01 	sts	0x0161, r24
 5de:	84 e3       	ldi	r24, 0x34	; 52
 5e0:	01 c0       	rjmp	.+2      	; 0x5e4 <usbPoll+0xfe>
 5e2:	80 e0       	ldi	r24, 0x00	; 0
 5e4:	90 e4       	ldi	r25, 0x40	; 64
 5e6:	90 93 46 01 	sts	0x0146, r25
 5ea:	1d c0       	rjmp	.+58     	; 0x626 <usbPoll+0x140>
 5ec:	88 30       	cpi	r24, 0x08	; 8
 5ee:	69 f0       	breq	.+26     	; 0x60a <usbPoll+0x124>
 5f0:	89 30       	cpi	r24, 0x09	; 9
 5f2:	19 f4       	brne	.+6      	; 0x5fa <usbPoll+0x114>
 5f4:	90 93 66 01 	sts	0x0166, r25
 5f8:	0f c0       	rjmp	.+30     	; 0x618 <usbPoll+0x132>
 5fa:	8a 30       	cpi	r24, 0x0A	; 10
 5fc:	49 f0       	breq	.+18     	; 0x610 <usbPoll+0x12a>
 5fe:	8b 30       	cpi	r24, 0x0B	; 11
 600:	59 f4       	brne	.+22     	; 0x618 <usbPoll+0x132>
 602:	8b e4       	ldi	r24, 0x4B	; 75
 604:	80 93 53 01 	sts	0x0153, r24
 608:	07 c0       	rjmp	.+14     	; 0x618 <usbPoll+0x132>
 60a:	26 e6       	ldi	r18, 0x66	; 102
 60c:	31 e0       	ldi	r19, 0x01	; 1
 60e:	02 c0       	rjmp	.+4      	; 0x614 <usbPoll+0x12e>
 610:	20 e5       	ldi	r18, 0x50	; 80
 612:	31 e0       	ldi	r19, 0x01	; 1
 614:	81 e0       	ldi	r24, 0x01	; 1
 616:	03 c0       	rjmp	.+6      	; 0x61e <usbPoll+0x138>
 618:	20 e5       	ldi	r18, 0x50	; 80
 61a:	31 e0       	ldi	r19, 0x01	; 1
 61c:	80 e0       	ldi	r24, 0x00	; 0
 61e:	30 93 62 01 	sts	0x0162, r19
 622:	20 93 61 01 	sts	0x0161, r18
 626:	9f 81       	ldd	r25, Y+7	; 0x07
 628:	91 11       	cpse	r25, r1
 62a:	04 c0       	rjmp	.+8      	; 0x634 <usbPoll+0x14e>
 62c:	9e 81       	ldd	r25, Y+6	; 0x06
 62e:	98 17       	cp	r25, r24
 630:	08 f4       	brcc	.+2      	; 0x634 <usbPoll+0x14e>
 632:	89 2f       	mov	r24, r25
 634:	80 93 13 01 	sts	0x0113, r24
 638:	10 92 63 01 	sts	0x0163, r1
 63c:	80 91 14 01 	lds	r24, 0x0114
 640:	84 ff       	sbrs	r24, 4
 642:	4d c0       	rjmp	.+154    	; 0x6de <usbPoll+0x1f8>
 644:	80 91 13 01 	lds	r24, 0x0113
 648:	8f 3f       	cpi	r24, 0xFF	; 255
 64a:	09 f4       	brne	.+2      	; 0x64e <usbPoll+0x168>
 64c:	48 c0       	rjmp	.+144    	; 0x6de <usbPoll+0x1f8>
 64e:	c8 2f       	mov	r28, r24
 650:	89 30       	cpi	r24, 0x09	; 9
 652:	08 f0       	brcs	.+2      	; 0x656 <usbPoll+0x170>
 654:	c8 e0       	ldi	r28, 0x08	; 8
 656:	8c 1b       	sub	r24, r28
 658:	80 93 13 01 	sts	0x0113, r24
 65c:	80 91 47 01 	lds	r24, 0x0147
 660:	98 e8       	ldi	r25, 0x88	; 136
 662:	89 27       	eor	r24, r25
 664:	80 93 47 01 	sts	0x0147, r24
 668:	cc 23       	and	r28, r28
 66a:	61 f1       	breq	.+88     	; 0x6c4 <usbPoll+0x1de>
 66c:	80 91 61 01 	lds	r24, 0x0161
 670:	90 91 62 01 	lds	r25, 0x0162
 674:	20 91 46 01 	lds	r18, 0x0146
 678:	26 ff       	sbrs	r18, 6
 67a:	12 c0       	rjmp	.+36     	; 0x6a0 <usbPoll+0x1ba>
 67c:	a8 e4       	ldi	r26, 0x48	; 72
 67e:	b1 e0       	ldi	r27, 0x01	; 1
 680:	27 e4       	ldi	r18, 0x47	; 71
 682:	31 e0       	ldi	r19, 0x01	; 1
 684:	20 95       	com	r18
 686:	30 95       	com	r19
 688:	28 0f       	add	r18, r24
 68a:	39 1f       	adc	r19, r25
 68c:	4c 2f       	mov	r20, r28
 68e:	4a 0f       	add	r20, r26
 690:	f9 01       	movw	r30, r18
 692:	ea 0f       	add	r30, r26
 694:	fb 1f       	adc	r31, r27
 696:	e4 91       	lpm	r30, Z
 698:	ed 93       	st	X+, r30
 69a:	4a 13       	cpse	r20, r26
 69c:	f9 cf       	rjmp	.-14     	; 0x690 <usbPoll+0x1aa>
 69e:	09 c0       	rjmp	.+18     	; 0x6b2 <usbPoll+0x1cc>
 6a0:	e8 e4       	ldi	r30, 0x48	; 72
 6a2:	f1 e0       	ldi	r31, 0x01	; 1
 6a4:	dc 01       	movw	r26, r24
 6a6:	2c 2f       	mov	r18, r28
 6a8:	2e 0f       	add	r18, r30
 6aa:	3d 91       	ld	r19, X+
 6ac:	31 93       	st	Z+, r19
 6ae:	2e 13       	cpse	r18, r30
 6b0:	fc cf       	rjmp	.-8      	; 0x6aa <usbPoll+0x1c4>
 6b2:	01 96       	adiw	r24, 0x01	; 1
 6b4:	2f ef       	ldi	r18, 0xFF	; 255
 6b6:	2c 0f       	add	r18, r28
 6b8:	82 0f       	add	r24, r18
 6ba:	91 1d       	adc	r25, r1
 6bc:	90 93 62 01 	sts	0x0162, r25
 6c0:	80 93 61 01 	sts	0x0161, r24
 6c4:	6c 2f       	mov	r22, r28
 6c6:	88 e4       	ldi	r24, 0x48	; 72
 6c8:	91 e0       	ldi	r25, 0x01	; 1
 6ca:	0e 94 9e 03 	call	0x73c	; 0x73c <usbCrc16Append>
 6ce:	cc 5f       	subi	r28, 0xFC	; 252
 6d0:	cc 30       	cpi	r28, 0x0C	; 12
 6d2:	19 f0       	breq	.+6      	; 0x6da <usbPoll+0x1f4>
 6d4:	8f ef       	ldi	r24, 0xFF	; 255
 6d6:	80 93 13 01 	sts	0x0113, r24
 6da:	c0 93 14 01 	sts	0x0114, r28
 6de:	84 e1       	ldi	r24, 0x14	; 20
 6e0:	99 b1       	in	r25, 0x09	; 9
 6e2:	9c 70       	andi	r25, 0x0C	; 12
 6e4:	31 f4       	brne	.+12     	; 0x6f2 <usbPoll+0x20c>
 6e6:	81 50       	subi	r24, 0x01	; 1
 6e8:	d9 f7       	brne	.-10     	; 0x6e0 <usbPoll+0x1fa>
 6ea:	10 92 64 01 	sts	0x0164, r1
 6ee:	10 92 5e 01 	sts	0x015E, r1
 6f2:	df 91       	pop	r29
 6f4:	cf 91       	pop	r28
 6f6:	08 95       	ret

000006f8 <usbInit>:
 6f8:	e9 e6       	ldi	r30, 0x69	; 105
 6fa:	f0 e0       	ldi	r31, 0x00	; 0
 6fc:	80 81       	ld	r24, Z
 6fe:	82 60       	ori	r24, 0x02	; 2
 700:	80 83       	st	Z, r24
 702:	e8 9a       	sbi	0x1d, 0	; 29
 704:	8b e4       	ldi	r24, 0x4B	; 75
 706:	80 93 53 01 	sts	0x0153, r24
 70a:	8a e5       	ldi	r24, 0x5A	; 90
 70c:	80 93 52 01 	sts	0x0152, r24
 710:	08 95       	ret

00000712 <usbCrc16>:
 712:	a8 2f       	mov	r26, r24
 714:	b9 2f       	mov	r27, r25
 716:	80 e0       	ldi	r24, 0x00	; 0
 718:	90 e0       	ldi	r25, 0x00	; 0
 71a:	41 e0       	ldi	r20, 0x01	; 1
 71c:	50 ea       	ldi	r21, 0xA0	; 160
 71e:	60 95       	com	r22
 720:	30 e0       	ldi	r19, 0x00	; 0
 722:	09 c0       	rjmp	.+18     	; 0x736 <usbCrcLoopEntry>

00000724 <usbCrcByteLoop>:
 724:	2d 91       	ld	r18, X+
 726:	82 27       	eor	r24, r18

00000728 <usbCrcBitLoop>:
 728:	97 95       	ror	r25
 72a:	87 95       	ror	r24
 72c:	10 f0       	brcs	.+4      	; 0x732 <usbCrcNoXor>
 72e:	84 27       	eor	r24, r20
 730:	95 27       	eor	r25, r21

00000732 <usbCrcNoXor>:
 732:	30 5e       	subi	r19, 0xE0	; 224
 734:	c8 f3       	brcs	.-14     	; 0x728 <usbCrcBitLoop>

00000736 <usbCrcLoopEntry>:
 736:	6f 5f       	subi	r22, 0xFF	; 255
 738:	a8 f3       	brcs	.-22     	; 0x724 <usbCrcByteLoop>

0000073a <usbCrcReady>:
 73a:	08 95       	ret

0000073c <usbCrc16Append>:
 73c:	ea df       	rcall	.-44     	; 0x712 <usbCrc16>
 73e:	8d 93       	st	X+, r24
 740:	9d 93       	st	X+, r25
 742:	08 95       	ret

00000744 <__vector_1>:
 744:	cf 93       	push	r28
 746:	cf b7       	in	r28, 0x3f	; 63
 748:	cf 93       	push	r28
 74a:	df 93       	push	r29

0000074c <waitForJ>:
 74c:	c3 95       	inc	r28
 74e:	4b 9b       	sbis	0x09, 3	; 9
 750:	e9 f7       	brne	.-6      	; 0x74c <waitForJ>

00000752 <waitForK>:
 752:	4b 9b       	sbis	0x09, 3	; 9
 754:	0b c0       	rjmp	.+22     	; 0x76c <foundK>
 756:	4b 9b       	sbis	0x09, 3	; 9
 758:	09 c0       	rjmp	.+18     	; 0x76c <foundK>
 75a:	4b 9b       	sbis	0x09, 3	; 9
 75c:	07 c0       	rjmp	.+14     	; 0x76c <foundK>
 75e:	4b 9b       	sbis	0x09, 3	; 9
 760:	05 c0       	rjmp	.+10     	; 0x76c <foundK>
 762:	4b 9b       	sbis	0x09, 3	; 9
 764:	03 c0       	rjmp	.+6      	; 0x76c <foundK>
 766:	4b 9b       	sbis	0x09, 3	; 9
 768:	01 c0       	rjmp	.+2      	; 0x76c <foundK>
 76a:	8b c0       	rjmp	.+278    	; 0x882 <sofError>

0000076c <foundK>:
 76c:	6f 93       	push	r22
 76e:	c0 91 60 01 	lds	r28, 0x0160
 772:	dd 27       	eor	r29, r29
 774:	c9 59       	subi	r28, 0x99	; 153
 776:	de 4f       	sbci	r29, 0xFE	; 254
 778:	2f 93       	push	r18
 77a:	65 e5       	ldi	r22, 0x55	; 85
 77c:	4b 9b       	sbis	0x09, 3	; 9
 77e:	03 c0       	rjmp	.+6      	; 0x786 <haveTwoBitsK>
 780:	2f 91       	pop	r18
 782:	6f 91       	pop	r22
 784:	e6 cf       	rjmp	.-52     	; 0x752 <waitForK>

00000786 <haveTwoBitsK>:
 786:	0f 93       	push	r16
 788:	1f 93       	push	r17
 78a:	4f 93       	push	r20
 78c:	20 e0       	ldi	r18, 0x00	; 0
 78e:	40 e1       	ldi	r20, 0x10	; 16
 790:	5f 93       	push	r21
 792:	09 b1       	in	r16, 0x09	; 9
 794:	0c 70       	andi	r16, 0x0C	; 12
 796:	03 fb       	bst	r16, 3
 798:	27 f9       	bld	r18, 7
 79a:	3f 93       	push	r19
 79c:	50 e0       	ldi	r21, 0x00	; 0
 79e:	3b e0       	ldi	r19, 0x0B	; 11
 7a0:	39 c0       	rjmp	.+114    	; 0x814 <rxbit1>

000007a2 <unstuff6>:
 7a2:	1c 70       	andi	r17, 0x0C	; 12
 7a4:	40 64       	ori	r20, 0x40	; 64
 7a6:	2f 77       	andi	r18, 0x7F	; 127
 7a8:	01 2f       	mov	r16, r17
 7aa:	5f 5f       	subi	r21, 0xFF	; 255
 7ac:	1e c0       	rjmp	.+60     	; 0x7ea <didUnstuff6>

000007ae <unstuff7>:
 7ae:	40 68       	ori	r20, 0x80	; 128
 7b0:	19 b1       	in	r17, 0x09	; 9
 7b2:	1c 70       	andi	r17, 0x0C	; 12
 7b4:	2f 77       	andi	r18, 0x7F	; 127
 7b6:	52 50       	subi	r21, 0x02	; 2
 7b8:	1f c0       	rjmp	.+62     	; 0x7f8 <didUnstuff7>

000007ba <unstuffEven>:
 7ba:	40 64       	ori	r20, 0x40	; 64
 7bc:	09 b1       	in	r16, 0x09	; 9
 7be:	2f 77       	andi	r18, 0x7F	; 127
 7c0:	0c 70       	andi	r16, 0x0C	; 12
 7c2:	d1 f1       	breq	.+116    	; 0x838 <se0>
 7c4:	5f 5f       	subi	r21, 0xFF	; 255
 7c6:	00 c0       	rjmp	.+0      	; 0x7c8 <unstuffEven+0xe>
 7c8:	23 c0       	rjmp	.+70     	; 0x810 <didUnstuffE>

000007ca <unstuffOdd>:
 7ca:	40 62       	ori	r20, 0x20	; 32
 7cc:	19 b1       	in	r17, 0x09	; 9
 7ce:	2f 77       	andi	r18, 0x7F	; 127
 7d0:	1c 70       	andi	r17, 0x0C	; 12
 7d2:	91 f1       	breq	.+100    	; 0x838 <se0>
 7d4:	5f 5f       	subi	r21, 0xFF	; 255
 7d6:	00 c0       	rjmp	.+0      	; 0x7d8 <unstuffOdd+0xe>
 7d8:	25 c0       	rjmp	.+74     	; 0x824 <didUnstuffO>

000007da <rxByteLoop>:
 7da:	0c 70       	andi	r16, 0x0C	; 12
 7dc:	10 27       	eor	r17, r16
 7de:	51 50       	subi	r21, 0x01	; 1
 7e0:	12 f4       	brpl	.+4      	; 0x7e6 <skipLeap>
 7e2:	5d 5f       	subi	r21, 0xFD	; 253
	...

000007e6 <skipLeap>:
 7e6:	11 50       	subi	r17, 0x01	; 1
 7e8:	27 95       	ror	r18

000007ea <didUnstuff6>:
 7ea:	2c 3f       	cpi	r18, 0xFC	; 252
 7ec:	19 b1       	in	r17, 0x09	; 9
 7ee:	c8 f6       	brcc	.-78     	; 0x7a2 <unstuff6>
 7f0:	1c 70       	andi	r17, 0x0C	; 12
 7f2:	01 27       	eor	r16, r17
 7f4:	01 50       	subi	r16, 0x01	; 1
 7f6:	27 95       	ror	r18

000007f8 <didUnstuff7>:
 7f8:	2c 3f       	cpi	r18, 0xFC	; 252
 7fa:	c8 f6       	brcc	.-78     	; 0x7ae <unstuff7>
 7fc:	42 27       	eor	r20, r18
 7fe:	49 93       	st	Y+, r20

00000800 <rxBitLoop>:
 800:	09 b1       	in	r16, 0x09	; 9
 802:	0c 70       	andi	r16, 0x0C	; 12
 804:	10 27       	eor	r17, r16
 806:	4f 73       	andi	r20, 0x3F	; 63
 808:	11 50       	subi	r17, 0x01	; 1
 80a:	27 95       	ror	r18
 80c:	2c 3f       	cpi	r18, 0xFC	; 252
 80e:	a8 f6       	brcc	.-86     	; 0x7ba <unstuffEven>

00000810 <didUnstuffE>:
 810:	46 95       	lsr	r20
 812:	46 95       	lsr	r20

00000814 <rxbit1>:
 814:	19 b1       	in	r17, 0x09	; 9
 816:	1c 70       	andi	r17, 0x0C	; 12
 818:	79 f0       	breq	.+30     	; 0x838 <se0>
 81a:	01 27       	eor	r16, r17
 81c:	01 50       	subi	r16, 0x01	; 1
 81e:	27 95       	ror	r18
 820:	2c 3f       	cpi	r18, 0xFC	; 252
 822:	98 f6       	brcc	.-90     	; 0x7ca <unstuffOdd>

00000824 <didUnstuffO>:
 824:	6b 5a       	subi	r22, 0xAB	; 171
 826:	60 f3       	brcs	.-40     	; 0x800 <rxBitLoop>
 828:	31 50       	subi	r19, 0x01	; 1
 82a:	09 b1       	in	r16, 0x09	; 9
 82c:	b0 f6       	brcc	.-84     	; 0x7da <rxByteLoop>
 82e:	00 c0       	rjmp	.+0      	; 0x830 <overflow>

00000830 <overflow>:
 830:	11 e0       	ldi	r17, 0x01	; 1
 832:	1c bb       	out	0x1c, r17	; 28

00000834 <ignorePacket>:
 834:	00 27       	eor	r16, r16
 836:	19 c0       	rjmp	.+50     	; 0x86a <handleSetupOrOut>

00000838 <se0>:
 838:	3b 50       	subi	r19, 0x0B	; 11
 83a:	31 95       	neg	r19
 83c:	c3 1b       	sub	r28, r19
 83e:	d0 40       	sbci	r29, 0x00	; 0
 840:	11 e0       	ldi	r17, 0x01	; 1
 842:	1c bb       	out	0x1c, r17	; 28
 844:	08 81       	ld	r16, Y
 846:	03 3c       	cpi	r16, 0xC3	; 195
 848:	09 f1       	breq	.+66     	; 0x88c <handleData>
 84a:	0b 34       	cpi	r16, 0x4B	; 75
 84c:	f9 f0       	breq	.+62     	; 0x88c <handleData>
 84e:	20 91 5e 01 	lds	r18, 0x015E
 852:	19 81       	ldd	r17, Y+1	; 0x01
 854:	11 0f       	add	r17, r17
 856:	12 13       	cpse	r17, r18
 858:	ed cf       	rjmp	.-38     	; 0x834 <ignorePacket>
 85a:	4a 81       	ldd	r20, Y+2	; 0x02
 85c:	44 1f       	adc	r20, r20
 85e:	09 36       	cpi	r16, 0x69	; 105
 860:	51 f1       	breq	.+84     	; 0x8b6 <handleIn>
 862:	0d 32       	cpi	r16, 0x2D	; 45
 864:	11 f0       	breq	.+4      	; 0x86a <handleSetupOrOut>
 866:	01 3e       	cpi	r16, 0xE1	; 225
 868:	29 f7       	brne	.-54     	; 0x834 <ignorePacket>

0000086a <handleSetupOrOut>:
 86a:	00 93 65 01 	sts	0x0165, r16

0000086e <doReturn>:
 86e:	3f 91       	pop	r19
 870:	5f 91       	pop	r21
 872:	4f 91       	pop	r20
 874:	1f 91       	pop	r17
 876:	0f 91       	pop	r16
 878:	2f 91       	pop	r18
 87a:	6f 91       	pop	r22
 87c:	cc b3       	in	r28, 0x1c	; 28
 87e:	c0 fd       	sbrc	r28, 0
 880:	65 cf       	rjmp	.-310    	; 0x74c <waitForJ>

00000882 <sofError>:
 882:	df 91       	pop	r29
 884:	cf 91       	pop	r28
 886:	cf bf       	out	0x3f, r28	; 63
 888:	cf 91       	pop	r28
 88a:	18 95       	reti

0000088c <handleData>:
 88c:	20 91 65 01 	lds	r18, 0x0165
 890:	22 23       	and	r18, r18
 892:	69 f3       	breq	.-38     	; 0x86e <doReturn>
 894:	10 91 63 01 	lds	r17, 0x0163
 898:	11 23       	and	r17, r17
 89a:	91 f5       	brne	.+100    	; 0x900 <sendNakAndReti>
 89c:	34 30       	cpi	r19, 0x04	; 4
 89e:	92 f1       	brmi	.+100    	; 0x904 <sendAckAndReti>
 8a0:	30 93 63 01 	sts	0x0163, r19
 8a4:	20 93 5f 01 	sts	0x015F, r18
 8a8:	10 91 60 01 	lds	r17, 0x0160
 8ac:	3b e0       	ldi	r19, 0x0B	; 11
 8ae:	31 1b       	sub	r19, r17
 8b0:	30 93 60 01 	sts	0x0160, r19
 8b4:	27 c0       	rjmp	.+78     	; 0x904 <sendAckAndReti>

000008b6 <handleIn>:
 8b6:	00 91 63 01 	lds	r16, 0x0163
 8ba:	01 30       	cpi	r16, 0x01	; 1
 8bc:	0c f5       	brge	.+66     	; 0x900 <sendNakAndReti>
 8be:	0a e5       	ldi	r16, 0x5A	; 90
 8c0:	4f 70       	andi	r20, 0x0F	; 15
 8c2:	49 f4       	brne	.+18     	; 0x8d6 <handleIn1>
 8c4:	30 91 14 01 	lds	r19, 0x0114
 8c8:	34 fd       	sbrc	r19, 4
 8ca:	1d c0       	rjmp	.+58     	; 0x906 <sendCntAndReti>
 8cc:	00 93 14 01 	sts	0x0114, r16
 8d0:	c7 e4       	ldi	r28, 0x47	; 71
 8d2:	d1 e0       	ldi	r29, 0x01	; 1
 8d4:	1c c0       	rjmp	.+56     	; 0x90e <usbSendAndReti>

000008d6 <handleIn1>:
 8d6:	30 91 52 01 	lds	r19, 0x0152
 8da:	34 fd       	sbrc	r19, 4
 8dc:	14 c0       	rjmp	.+40     	; 0x906 <sendCntAndReti>
 8de:	00 93 52 01 	sts	0x0152, r16
 8e2:	c3 e5       	ldi	r28, 0x53	; 83
 8e4:	d1 e0       	ldi	r29, 0x01	; 1
 8e6:	13 c0       	rjmp	.+38     	; 0x90e <usbSendAndReti>

000008e8 <bitstuffN>:
 8e8:	05 27       	eor	r16, r21
 8ea:	10 e0       	ldi	r17, 0x00	; 0
 8ec:	00 c0       	rjmp	.+0      	; 0x8ee <bitstuffN+0x6>
 8ee:	00 00       	nop
 8f0:	0b b9       	out	0x0b, r16	; 11
 8f2:	1a c0       	rjmp	.+52     	; 0x928 <didStuffN>

000008f4 <bitstuff6>:
 8f4:	05 27       	eor	r16, r21
 8f6:	10 e0       	ldi	r17, 0x00	; 0
 8f8:	22 1f       	adc	r18, r18
 8fa:	1d c0       	rjmp	.+58     	; 0x936 <didStuff6>

000008fc <bitstuff7>:
 8fc:	10 e0       	ldi	r17, 0x00	; 0
 8fe:	21 c0       	rjmp	.+66     	; 0x942 <didStuff7>

00000900 <sendNakAndReti>:
 900:	4a e5       	ldi	r20, 0x5A	; 90
 902:	02 c0       	rjmp	.+4      	; 0x908 <sendX3AndReti>

00000904 <sendAckAndReti>:
 904:	32 ed       	ldi	r19, 0xD2	; 210

00000906 <sendCntAndReti>:
 906:	43 2f       	mov	r20, r19

00000908 <sendX3AndReti>:
 908:	c4 e1       	ldi	r28, 0x14	; 20
 90a:	d0 e0       	ldi	r29, 0x00	; 0
 90c:	32 e0       	ldi	r19, 0x02	; 2

0000090e <usbSendAndReti>:
 90e:	1a b1       	in	r17, 0x0a	; 10
 910:	1c 60       	ori	r17, 0x0C	; 12
 912:	5b 9a       	sbi	0x0b, 3	; 11
 914:	0b b1       	in	r16, 0x0b	; 11
 916:	1a b9       	out	0x0a, r17	; 10
 918:	5c e0       	ldi	r21, 0x0C	; 12
 91a:	20 e8       	ldi	r18, 0x80	; 128

0000091c <txByteLoop>:
 91c:	65 e3       	ldi	r22, 0x35	; 53

0000091e <txBitLoop>:
 91e:	20 ff       	sbrs	r18, 0
 920:	05 27       	eor	r16, r21
 922:	0b b9       	out	0x0b, r16	; 11
 924:	27 95       	ror	r18
 926:	17 95       	ror	r17

00000928 <didStuffN>:
 928:	1c 3f       	cpi	r17, 0xFC	; 252
 92a:	f0 f6       	brcc	.-68     	; 0x8e8 <bitstuffN>
 92c:	66 95       	lsr	r22
 92e:	b8 f7       	brcc	.-18     	; 0x91e <txBitLoop>
 930:	b1 f7       	brne	.-20     	; 0x91e <txBitLoop>
 932:	20 ff       	sbrs	r18, 0
 934:	05 27       	eor	r16, r21

00000936 <didStuff6>:
 936:	0b b9       	out	0x0b, r16	; 11
 938:	27 95       	ror	r18
 93a:	17 95       	ror	r17
 93c:	1c 3f       	cpi	r17, 0xFC	; 252
 93e:	d0 f6       	brcc	.-76     	; 0x8f4 <bitstuff6>
 940:	27 95       	ror	r18

00000942 <didStuff7>:
 942:	17 95       	ror	r17
 944:	17 ff       	sbrs	r17, 7
 946:	05 27       	eor	r16, r21
 948:	00 00       	nop
 94a:	1c 3f       	cpi	r17, 0xFC	; 252
 94c:	0b b9       	out	0x0b, r16	; 11
 94e:	b0 f6       	brcc	.-84     	; 0x8fc <bitstuff7>
 950:	29 91       	ld	r18, Y+
 952:	3a 95       	dec	r19
 954:	19 f7       	brne	.-58     	; 0x91c <txByteLoop>
 956:	03 7f       	andi	r16, 0xF3	; 243
 958:	10 91 64 01 	lds	r17, 0x0164
 95c:	11 0f       	add	r17, r17
 95e:	c6 51       	subi	r28, 0x16	; 22
 960:	d0 40       	sbci	r29, 0x00	; 0
 962:	0b b9       	out	0x0b, r16	; 11
 964:	11 f0       	breq	.+4      	; 0x96a <skipAddrAssign>
 966:	10 93 5e 01 	sts	0x015E, r17

0000096a <skipAddrAssign>:
 96a:	11 e0       	ldi	r17, 0x01	; 1
 96c:	1c bb       	out	0x1c, r17	; 28
 96e:	08 60       	ori	r16, 0x08	; 8
 970:	1a b1       	in	r17, 0x0a	; 10
 972:	13 7f       	andi	r17, 0xF3	; 243
 974:	40 2f       	mov	r20, r16
 976:	43 7f       	andi	r20, 0xF3	; 243
 978:	54 e0       	ldi	r21, 0x04	; 4

0000097a <se0Delay>:
 97a:	5a 95       	dec	r21
 97c:	f1 f7       	brne	.-4      	; 0x97a <se0Delay>
 97e:	0b b9       	out	0x0b, r16	; 11
 980:	1a b9       	out	0x0a, r17	; 10
 982:	4b b9       	out	0x0b, r20	; 11
 984:	74 cf       	rjmp	.-280    	; 0x86e <doReturn>

00000986 <main>:
 986:	40 e8       	ldi	r20, 0x80	; 128
 988:	55 e2       	ldi	r21, 0x25	; 37
 98a:	60 e0       	ldi	r22, 0x00	; 0
 98c:	70 e0       	ldi	r23, 0x00	; 0
 98e:	80 e0       	ldi	r24, 0x00	; 0
 990:	91 e0       	ldi	r25, 0x01	; 1
 992:	0e 94 a4 00 	call	0x148	; 0x148 <serialInit>
 996:	0e 94 7c 03 	call	0x6f8	; 0x6f8 <usbInit>
 99a:	54 98       	cbi	0x0a, 4	; 10
 99c:	5c 98       	cbi	0x0b, 4	; 11
 99e:	2f ef       	ldi	r18, 0xFF	; 255
 9a0:	81 ee       	ldi	r24, 0xE1	; 225
 9a2:	94 e0       	ldi	r25, 0x04	; 4
 9a4:	21 50       	subi	r18, 0x01	; 1
 9a6:	80 40       	sbci	r24, 0x00	; 0
 9a8:	90 40       	sbci	r25, 0x00	; 0
 9aa:	e1 f7       	brne	.-8      	; 0x9a4 <main+0x1e>
 9ac:	00 c0       	rjmp	.+0      	; 0x9ae <main+0x28>
 9ae:	00 00       	nop
 9b0:	54 9a       	sbi	0x0a, 4	; 10
 9b2:	5c 9a       	sbi	0x0b, 4	; 11
 9b4:	78 94       	sei
 9b6:	4b e1       	ldi	r20, 0x1B	; 27
 9b8:	51 e0       	ldi	r21, 0x01	; 1
 9ba:	66 e2       	ldi	r22, 0x26	; 38
 9bc:	70 e0       	ldi	r23, 0x00	; 0
 9be:	80 e0       	ldi	r24, 0x00	; 0
 9c0:	91 e0       	ldi	r25, 0x01	; 1
 9c2:	0e 94 f3 00 	call	0x1e6	; 0x1e6 <serialWrite>
 9c6:	0e 94 3f 02 	call	0x47e	; 0x47e <updateUSB>
 9ca:	2f ef       	ldi	r18, 0xFF	; 255
 9cc:	81 ee       	ldi	r24, 0xE1	; 225
 9ce:	94 e0       	ldi	r25, 0x04	; 4
 9d0:	21 50       	subi	r18, 0x01	; 1
 9d2:	80 40       	sbci	r24, 0x00	; 0
 9d4:	90 40       	sbci	r25, 0x00	; 0
 9d6:	e1 f7       	brne	.-8      	; 0x9d0 <main+0x4a>
 9d8:	00 c0       	rjmp	.+0      	; 0x9da <main+0x54>
 9da:	00 00       	nop
 9dc:	ec cf       	rjmp	.-40     	; 0x9b6 <main+0x30>

000009de <__udivmodsi4>:
 9de:	a1 e2       	ldi	r26, 0x21	; 33
 9e0:	1a 2e       	mov	r1, r26
 9e2:	aa 1b       	sub	r26, r26
 9e4:	bb 1b       	sub	r27, r27
 9e6:	fd 01       	movw	r30, r26
 9e8:	0d c0       	rjmp	.+26     	; 0xa04 <__udivmodsi4_ep>

000009ea <__udivmodsi4_loop>:
 9ea:	aa 1f       	adc	r26, r26
 9ec:	bb 1f       	adc	r27, r27
 9ee:	ee 1f       	adc	r30, r30
 9f0:	ff 1f       	adc	r31, r31
 9f2:	a2 17       	cp	r26, r18
 9f4:	b3 07       	cpc	r27, r19
 9f6:	e4 07       	cpc	r30, r20
 9f8:	f5 07       	cpc	r31, r21
 9fa:	20 f0       	brcs	.+8      	; 0xa04 <__udivmodsi4_ep>
 9fc:	a2 1b       	sub	r26, r18
 9fe:	b3 0b       	sbc	r27, r19
 a00:	e4 0b       	sbc	r30, r20
 a02:	f5 0b       	sbc	r31, r21

00000a04 <__udivmodsi4_ep>:
 a04:	66 1f       	adc	r22, r22
 a06:	77 1f       	adc	r23, r23
 a08:	88 1f       	adc	r24, r24
 a0a:	99 1f       	adc	r25, r25
 a0c:	1a 94       	dec	r1
 a0e:	69 f7       	brne	.-38     	; 0x9ea <__udivmodsi4_loop>
 a10:	60 95       	com	r22
 a12:	70 95       	com	r23
 a14:	80 95       	com	r24
 a16:	90 95       	com	r25
 a18:	9b 01       	movw	r18, r22
 a1a:	ac 01       	movw	r20, r24
 a1c:	bd 01       	movw	r22, r26
 a1e:	cf 01       	movw	r24, r30
 a20:	08 95       	ret

00000a22 <malloc>:
 a22:	cf 93       	push	r28
 a24:	df 93       	push	r29
 a26:	82 30       	cpi	r24, 0x02	; 2
 a28:	91 05       	cpc	r25, r1
 a2a:	10 f4       	brcc	.+4      	; 0xa30 <malloc+0xe>
 a2c:	82 e0       	ldi	r24, 0x02	; 2
 a2e:	90 e0       	ldi	r25, 0x00	; 0
 a30:	e0 91 7f 01 	lds	r30, 0x017F
 a34:	f0 91 80 01 	lds	r31, 0x0180
 a38:	20 e0       	ldi	r18, 0x00	; 0
 a3a:	30 e0       	ldi	r19, 0x00	; 0
 a3c:	a0 e0       	ldi	r26, 0x00	; 0
 a3e:	b0 e0       	ldi	r27, 0x00	; 0
 a40:	30 97       	sbiw	r30, 0x00	; 0
 a42:	39 f1       	breq	.+78     	; 0xa92 <malloc+0x70>
 a44:	40 81       	ld	r20, Z
 a46:	51 81       	ldd	r21, Z+1	; 0x01
 a48:	48 17       	cp	r20, r24
 a4a:	59 07       	cpc	r21, r25
 a4c:	b8 f0       	brcs	.+46     	; 0xa7c <malloc+0x5a>
 a4e:	48 17       	cp	r20, r24
 a50:	59 07       	cpc	r21, r25
 a52:	71 f4       	brne	.+28     	; 0xa70 <malloc+0x4e>
 a54:	82 81       	ldd	r24, Z+2	; 0x02
 a56:	93 81       	ldd	r25, Z+3	; 0x03
 a58:	10 97       	sbiw	r26, 0x00	; 0
 a5a:	29 f0       	breq	.+10     	; 0xa66 <malloc+0x44>
 a5c:	13 96       	adiw	r26, 0x03	; 3
 a5e:	9c 93       	st	X, r25
 a60:	8e 93       	st	-X, r24
 a62:	12 97       	sbiw	r26, 0x02	; 2
 a64:	2c c0       	rjmp	.+88     	; 0xabe <malloc+0x9c>
 a66:	90 93 80 01 	sts	0x0180, r25
 a6a:	80 93 7f 01 	sts	0x017F, r24
 a6e:	27 c0       	rjmp	.+78     	; 0xabe <malloc+0x9c>
 a70:	21 15       	cp	r18, r1
 a72:	31 05       	cpc	r19, r1
 a74:	31 f0       	breq	.+12     	; 0xa82 <malloc+0x60>
 a76:	42 17       	cp	r20, r18
 a78:	53 07       	cpc	r21, r19
 a7a:	18 f0       	brcs	.+6      	; 0xa82 <malloc+0x60>
 a7c:	a9 01       	movw	r20, r18
 a7e:	db 01       	movw	r26, r22
 a80:	01 c0       	rjmp	.+2      	; 0xa84 <malloc+0x62>
 a82:	ef 01       	movw	r28, r30
 a84:	9a 01       	movw	r18, r20
 a86:	bd 01       	movw	r22, r26
 a88:	df 01       	movw	r26, r30
 a8a:	02 80       	ldd	r0, Z+2	; 0x02
 a8c:	f3 81       	ldd	r31, Z+3	; 0x03
 a8e:	e0 2d       	mov	r30, r0
 a90:	d7 cf       	rjmp	.-82     	; 0xa40 <malloc+0x1e>
 a92:	21 15       	cp	r18, r1
 a94:	31 05       	cpc	r19, r1
 a96:	f9 f0       	breq	.+62     	; 0xad6 <malloc+0xb4>
 a98:	28 1b       	sub	r18, r24
 a9a:	39 0b       	sbc	r19, r25
 a9c:	24 30       	cpi	r18, 0x04	; 4
 a9e:	31 05       	cpc	r19, r1
 aa0:	80 f4       	brcc	.+32     	; 0xac2 <malloc+0xa0>
 aa2:	8a 81       	ldd	r24, Y+2	; 0x02
 aa4:	9b 81       	ldd	r25, Y+3	; 0x03
 aa6:	61 15       	cp	r22, r1
 aa8:	71 05       	cpc	r23, r1
 aaa:	21 f0       	breq	.+8      	; 0xab4 <malloc+0x92>
 aac:	fb 01       	movw	r30, r22
 aae:	93 83       	std	Z+3, r25	; 0x03
 ab0:	82 83       	std	Z+2, r24	; 0x02
 ab2:	04 c0       	rjmp	.+8      	; 0xabc <malloc+0x9a>
 ab4:	90 93 80 01 	sts	0x0180, r25
 ab8:	80 93 7f 01 	sts	0x017F, r24
 abc:	fe 01       	movw	r30, r28
 abe:	32 96       	adiw	r30, 0x02	; 2
 ac0:	44 c0       	rjmp	.+136    	; 0xb4a <malloc+0x128>
 ac2:	fe 01       	movw	r30, r28
 ac4:	e2 0f       	add	r30, r18
 ac6:	f3 1f       	adc	r31, r19
 ac8:	81 93       	st	Z+, r24
 aca:	91 93       	st	Z+, r25
 acc:	22 50       	subi	r18, 0x02	; 2
 ace:	31 09       	sbc	r19, r1
 ad0:	39 83       	std	Y+1, r19	; 0x01
 ad2:	28 83       	st	Y, r18
 ad4:	3a c0       	rjmp	.+116    	; 0xb4a <malloc+0x128>
 ad6:	20 91 7d 01 	lds	r18, 0x017D
 ada:	30 91 7e 01 	lds	r19, 0x017E
 ade:	23 2b       	or	r18, r19
 ae0:	41 f4       	brne	.+16     	; 0xaf2 <malloc+0xd0>
 ae2:	20 91 17 01 	lds	r18, 0x0117
 ae6:	30 91 18 01 	lds	r19, 0x0118
 aea:	30 93 7e 01 	sts	0x017E, r19
 aee:	20 93 7d 01 	sts	0x017D, r18
 af2:	20 91 15 01 	lds	r18, 0x0115
 af6:	30 91 16 01 	lds	r19, 0x0116
 afa:	21 15       	cp	r18, r1
 afc:	31 05       	cpc	r19, r1
 afe:	41 f4       	brne	.+16     	; 0xb10 <malloc+0xee>
 b00:	2d b7       	in	r18, 0x3d	; 61
 b02:	3e b7       	in	r19, 0x3e	; 62
 b04:	40 91 19 01 	lds	r20, 0x0119
 b08:	50 91 1a 01 	lds	r21, 0x011A
 b0c:	24 1b       	sub	r18, r20
 b0e:	35 0b       	sbc	r19, r21
 b10:	e0 91 7d 01 	lds	r30, 0x017D
 b14:	f0 91 7e 01 	lds	r31, 0x017E
 b18:	e2 17       	cp	r30, r18
 b1a:	f3 07       	cpc	r31, r19
 b1c:	a0 f4       	brcc	.+40     	; 0xb46 <malloc+0x124>
 b1e:	2e 1b       	sub	r18, r30
 b20:	3f 0b       	sbc	r19, r31
 b22:	28 17       	cp	r18, r24
 b24:	39 07       	cpc	r19, r25
 b26:	78 f0       	brcs	.+30     	; 0xb46 <malloc+0x124>
 b28:	ac 01       	movw	r20, r24
 b2a:	4e 5f       	subi	r20, 0xFE	; 254
 b2c:	5f 4f       	sbci	r21, 0xFF	; 255
 b2e:	24 17       	cp	r18, r20
 b30:	35 07       	cpc	r19, r21
 b32:	48 f0       	brcs	.+18     	; 0xb46 <malloc+0x124>
 b34:	4e 0f       	add	r20, r30
 b36:	5f 1f       	adc	r21, r31
 b38:	50 93 7e 01 	sts	0x017E, r21
 b3c:	40 93 7d 01 	sts	0x017D, r20
 b40:	81 93       	st	Z+, r24
 b42:	91 93       	st	Z+, r25
 b44:	02 c0       	rjmp	.+4      	; 0xb4a <malloc+0x128>
 b46:	e0 e0       	ldi	r30, 0x00	; 0
 b48:	f0 e0       	ldi	r31, 0x00	; 0
 b4a:	cf 01       	movw	r24, r30
 b4c:	df 91       	pop	r29
 b4e:	cf 91       	pop	r28
 b50:	08 95       	ret

00000b52 <free>:
 b52:	cf 93       	push	r28
 b54:	df 93       	push	r29
 b56:	00 97       	sbiw	r24, 0x00	; 0
 b58:	09 f4       	brne	.+2      	; 0xb5c <free+0xa>
 b5a:	87 c0       	rjmp	.+270    	; 0xc6a <free+0x118>
 b5c:	fc 01       	movw	r30, r24
 b5e:	32 97       	sbiw	r30, 0x02	; 2
 b60:	13 82       	std	Z+3, r1	; 0x03
 b62:	12 82       	std	Z+2, r1	; 0x02
 b64:	c0 91 7f 01 	lds	r28, 0x017F
 b68:	d0 91 80 01 	lds	r29, 0x0180
 b6c:	20 97       	sbiw	r28, 0x00	; 0
 b6e:	81 f4       	brne	.+32     	; 0xb90 <free+0x3e>
 b70:	20 81       	ld	r18, Z
 b72:	31 81       	ldd	r19, Z+1	; 0x01
 b74:	28 0f       	add	r18, r24
 b76:	39 1f       	adc	r19, r25
 b78:	80 91 7d 01 	lds	r24, 0x017D
 b7c:	90 91 7e 01 	lds	r25, 0x017E
 b80:	82 17       	cp	r24, r18
 b82:	93 07       	cpc	r25, r19
 b84:	79 f5       	brne	.+94     	; 0xbe4 <free+0x92>
 b86:	f0 93 7e 01 	sts	0x017E, r31
 b8a:	e0 93 7d 01 	sts	0x017D, r30
 b8e:	6d c0       	rjmp	.+218    	; 0xc6a <free+0x118>
 b90:	de 01       	movw	r26, r28
 b92:	20 e0       	ldi	r18, 0x00	; 0
 b94:	30 e0       	ldi	r19, 0x00	; 0
 b96:	ae 17       	cp	r26, r30
 b98:	bf 07       	cpc	r27, r31
 b9a:	50 f4       	brcc	.+20     	; 0xbb0 <free+0x5e>
 b9c:	12 96       	adiw	r26, 0x02	; 2
 b9e:	4d 91       	ld	r20, X+
 ba0:	5c 91       	ld	r21, X
 ba2:	13 97       	sbiw	r26, 0x03	; 3
 ba4:	9d 01       	movw	r18, r26
 ba6:	41 15       	cp	r20, r1
 ba8:	51 05       	cpc	r21, r1
 baa:	09 f1       	breq	.+66     	; 0xbee <free+0x9c>
 bac:	da 01       	movw	r26, r20
 bae:	f3 cf       	rjmp	.-26     	; 0xb96 <free+0x44>
 bb0:	b3 83       	std	Z+3, r27	; 0x03
 bb2:	a2 83       	std	Z+2, r26	; 0x02
 bb4:	40 81       	ld	r20, Z
 bb6:	51 81       	ldd	r21, Z+1	; 0x01
 bb8:	84 0f       	add	r24, r20
 bba:	95 1f       	adc	r25, r21
 bbc:	8a 17       	cp	r24, r26
 bbe:	9b 07       	cpc	r25, r27
 bc0:	71 f4       	brne	.+28     	; 0xbde <free+0x8c>
 bc2:	8d 91       	ld	r24, X+
 bc4:	9c 91       	ld	r25, X
 bc6:	11 97       	sbiw	r26, 0x01	; 1
 bc8:	84 0f       	add	r24, r20
 bca:	95 1f       	adc	r25, r21
 bcc:	02 96       	adiw	r24, 0x02	; 2
 bce:	91 83       	std	Z+1, r25	; 0x01
 bd0:	80 83       	st	Z, r24
 bd2:	12 96       	adiw	r26, 0x02	; 2
 bd4:	8d 91       	ld	r24, X+
 bd6:	9c 91       	ld	r25, X
 bd8:	13 97       	sbiw	r26, 0x03	; 3
 bda:	93 83       	std	Z+3, r25	; 0x03
 bdc:	82 83       	std	Z+2, r24	; 0x02
 bde:	21 15       	cp	r18, r1
 be0:	31 05       	cpc	r19, r1
 be2:	29 f4       	brne	.+10     	; 0xbee <free+0x9c>
 be4:	f0 93 80 01 	sts	0x0180, r31
 be8:	e0 93 7f 01 	sts	0x017F, r30
 bec:	3e c0       	rjmp	.+124    	; 0xc6a <free+0x118>
 bee:	d9 01       	movw	r26, r18
 bf0:	13 96       	adiw	r26, 0x03	; 3
 bf2:	fc 93       	st	X, r31
 bf4:	ee 93       	st	-X, r30
 bf6:	12 97       	sbiw	r26, 0x02	; 2
 bf8:	4d 91       	ld	r20, X+
 bfa:	5d 91       	ld	r21, X+
 bfc:	a4 0f       	add	r26, r20
 bfe:	b5 1f       	adc	r27, r21
 c00:	ea 17       	cp	r30, r26
 c02:	fb 07       	cpc	r31, r27
 c04:	79 f4       	brne	.+30     	; 0xc24 <free+0xd2>
 c06:	80 81       	ld	r24, Z
 c08:	91 81       	ldd	r25, Z+1	; 0x01
 c0a:	84 0f       	add	r24, r20
 c0c:	95 1f       	adc	r25, r21
 c0e:	02 96       	adiw	r24, 0x02	; 2
 c10:	d9 01       	movw	r26, r18
 c12:	11 96       	adiw	r26, 0x01	; 1
 c14:	9c 93       	st	X, r25
 c16:	8e 93       	st	-X, r24
 c18:	82 81       	ldd	r24, Z+2	; 0x02
 c1a:	93 81       	ldd	r25, Z+3	; 0x03
 c1c:	13 96       	adiw	r26, 0x03	; 3
 c1e:	9c 93       	st	X, r25
 c20:	8e 93       	st	-X, r24
 c22:	12 97       	sbiw	r26, 0x02	; 2
 c24:	e0 e0       	ldi	r30, 0x00	; 0
 c26:	f0 e0       	ldi	r31, 0x00	; 0
 c28:	8a 81       	ldd	r24, Y+2	; 0x02
 c2a:	9b 81       	ldd	r25, Y+3	; 0x03
 c2c:	00 97       	sbiw	r24, 0x00	; 0
 c2e:	19 f0       	breq	.+6      	; 0xc36 <free+0xe4>
 c30:	fe 01       	movw	r30, r28
 c32:	ec 01       	movw	r28, r24
 c34:	f9 cf       	rjmp	.-14     	; 0xc28 <free+0xd6>
 c36:	ce 01       	movw	r24, r28
 c38:	02 96       	adiw	r24, 0x02	; 2
 c3a:	28 81       	ld	r18, Y
 c3c:	39 81       	ldd	r19, Y+1	; 0x01
 c3e:	82 0f       	add	r24, r18
 c40:	93 1f       	adc	r25, r19
 c42:	20 91 7d 01 	lds	r18, 0x017D
 c46:	30 91 7e 01 	lds	r19, 0x017E
 c4a:	28 17       	cp	r18, r24
 c4c:	39 07       	cpc	r19, r25
 c4e:	69 f4       	brne	.+26     	; 0xc6a <free+0x118>
 c50:	30 97       	sbiw	r30, 0x00	; 0
 c52:	29 f4       	brne	.+10     	; 0xc5e <free+0x10c>
 c54:	10 92 80 01 	sts	0x0180, r1
 c58:	10 92 7f 01 	sts	0x017F, r1
 c5c:	02 c0       	rjmp	.+4      	; 0xc62 <free+0x110>
 c5e:	13 82       	std	Z+3, r1	; 0x03
 c60:	12 82       	std	Z+2, r1	; 0x02
 c62:	d0 93 7e 01 	sts	0x017E, r29
 c66:	c0 93 7d 01 	sts	0x017D, r28
 c6a:	df 91       	pop	r29
 c6c:	cf 91       	pop	r28
 c6e:	08 95       	ret

00000c70 <_exit>:
 c70:	f8 94       	cli

00000c72 <__stop_program>:
 c72:	ff cf       	rjmp	.-2      	; 0xc72 <__stop_program>
