
bin/avr.elf:     file format elf32-avr


Disassembly of section .text:

00000000 <__vectors>:
   0:	0c 94 79 00 	jmp	0xf2	; 0xf2 <__ctors_end>
   4:	0c 94 87 02 	jmp	0x50e	; 0x50e <__vector_1>
   8:	0c 94 96 00 	jmp	0x12c	; 0x12c <__bad_interrupt>
   c:	0c 94 96 00 	jmp	0x12c	; 0x12c <__bad_interrupt>
  10:	0c 94 96 00 	jmp	0x12c	; 0x12c <__bad_interrupt>
  14:	0c 94 96 00 	jmp	0x12c	; 0x12c <__bad_interrupt>
  18:	0c 94 96 00 	jmp	0x12c	; 0x12c <__bad_interrupt>
  1c:	0c 94 96 00 	jmp	0x12c	; 0x12c <__bad_interrupt>
  20:	0c 94 96 00 	jmp	0x12c	; 0x12c <__bad_interrupt>
  24:	0c 94 96 00 	jmp	0x12c	; 0x12c <__bad_interrupt>
  28:	0c 94 96 00 	jmp	0x12c	; 0x12c <__bad_interrupt>
  2c:	0c 94 96 00 	jmp	0x12c	; 0x12c <__bad_interrupt>
  30:	0c 94 96 00 	jmp	0x12c	; 0x12c <__bad_interrupt>
  34:	0c 94 96 00 	jmp	0x12c	; 0x12c <__bad_interrupt>
  38:	0c 94 96 00 	jmp	0x12c	; 0x12c <__bad_interrupt>
  3c:	0c 94 96 00 	jmp	0x12c	; 0x12c <__bad_interrupt>
  40:	0c 94 96 00 	jmp	0x12c	; 0x12c <__bad_interrupt>
  44:	0c 94 96 00 	jmp	0x12c	; 0x12c <__bad_interrupt>
  48:	0c 94 96 00 	jmp	0x12c	; 0x12c <__bad_interrupt>
  4c:	0c 94 96 00 	jmp	0x12c	; 0x12c <__bad_interrupt>
  50:	0c 94 96 00 	jmp	0x12c	; 0x12c <__bad_interrupt>
  54:	0c 94 96 00 	jmp	0x12c	; 0x12c <__bad_interrupt>
  58:	0c 94 96 00 	jmp	0x12c	; 0x12c <__bad_interrupt>
  5c:	0c 94 96 00 	jmp	0x12c	; 0x12c <__bad_interrupt>
  60:	0c 94 96 00 	jmp	0x12c	; 0x12c <__bad_interrupt>
  64:	0c 94 96 00 	jmp	0x12c	; 0x12c <__bad_interrupt>

00000068 <usbDescriptorHidReport>:
  68:	05 01 09 02 a1 01 09 01 a1 00 05 09 19 01 29 03     ..............).
  78:	15 00 25 01 95 03 75 01 81 02 95 01 75 05 81 03     ..%...u.....u...
  88:	05 01 09 30 09 31 09 38 15 81 25 7f 75 08 95 03     ...0.1.8..%.u...
  98:	81 06 c0 c0                                         ....

0000009c <usbDescriptorString0>:
  9c:	04 03 09 04                                         ....

000000a0 <usbDescriptorStringVendor>:
  a0:	12 03 6f 00 62 00 64 00 65 00 76 00 2e 00 61 00     ..o.b.d.e.v...a.
  b0:	74 00                                               t.

000000b2 <usbDescriptorStringDevice>:
  b2:	0c 03 4d 00 6f 00 75 00 73 00 65 00                 ..M.o.u.s.e.

000000be <usbDescriptorDevice>:
  be:	12 01 10 01 00 00 00 08 c0 16 e8 02 00 01 01 02     ................
  ce:	00 01                                               ..

000000d0 <usbDescriptorConfiguration>:
  d0:	09 02 22 00 01 01 00 80 0a 09 04 00 00 01 03 00     ..".............
  e0:	00 00 09 21 01 01 00 01 22 34 00 07 05 81 03 08     ...!...."4......
  f0:	00 64                                               .d

000000f2 <__ctors_end>:
  f2:	11 24       	eor	r1, r1
  f4:	1f be       	out	0x3f, r1	; 63
  f6:	cf ef       	ldi	r28, 0xFF	; 255
  f8:	d8 e0       	ldi	r29, 0x08	; 8
  fa:	de bf       	out	0x3e, r29	; 62
  fc:	cd bf       	out	0x3d, r28	; 61

000000fe <__do_copy_data>:
  fe:	11 e0       	ldi	r17, 0x01	; 1
 100:	a0 e0       	ldi	r26, 0x00	; 0
 102:	b1 e0       	ldi	r27, 0x01	; 1
 104:	e8 e9       	ldi	r30, 0x98	; 152
 106:	f7 e0       	ldi	r31, 0x07	; 7
 108:	02 c0       	rjmp	.+4      	; 0x10e <.do_copy_data_start>

0000010a <.do_copy_data_loop>:
 10a:	05 90       	lpm	r0, Z+
 10c:	0d 92       	st	X+, r0

0000010e <.do_copy_data_start>:
 10e:	aa 31       	cpi	r26, 0x1A	; 26
 110:	b1 07       	cpc	r27, r17
 112:	d9 f7       	brne	.-10     	; 0x10a <.do_copy_data_loop>

00000114 <__do_clear_bss>:
 114:	11 e0       	ldi	r17, 0x01	; 1
 116:	aa e1       	ldi	r26, 0x1A	; 26
 118:	b1 e0       	ldi	r27, 0x01	; 1
 11a:	01 c0       	rjmp	.+2      	; 0x11e <.do_clear_bss_start>

0000011c <.do_clear_bss_loop>:
 11c:	1d 92       	st	X+, r1

0000011e <.do_clear_bss_start>:
 11e:	a5 35       	cpi	r26, 0x55	; 85
 120:	b1 07       	cpc	r27, r17
 122:	e1 f7       	brne	.-8      	; 0x11c <.do_clear_bss_loop>
 124:	0e 94 ee 00 	call	0x1dc	; 0x1dc <main>
 128:	0c 94 ca 03 	jmp	0x794	; 0x794 <_exit>

0000012c <__bad_interrupt>:
 12c:	0c 94 00 00 	jmp	0	; 0x0 <__vectors>

00000130 <serialInit>:
 130:	cf 92       	push	r12
 132:	df 92       	push	r13
 134:	ef 92       	push	r14
 136:	ff 92       	push	r15
 138:	0f 93       	push	r16
 13a:	1f 93       	push	r17
 13c:	6c 01       	movw	r12, r24
 13e:	7a 01       	movw	r14, r20
 140:	8b 01       	movw	r16, r22
 142:	60 e4       	ldi	r22, 0x40	; 64
 144:	72 e4       	ldi	r23, 0x42	; 66
 146:	8f e0       	ldi	r24, 0x0F	; 15
 148:	90 e0       	ldi	r25, 0x00	; 0
 14a:	a8 01       	movw	r20, r16
 14c:	97 01       	movw	r18, r14
 14e:	0e 94 a8 03 	call	0x750	; 0x750 <__udivmodsi4>
 152:	21 50       	subi	r18, 0x01	; 1
 154:	30 40       	sbci	r19, 0x00	; 0
 156:	40 40       	sbci	r20, 0x00	; 0
 158:	50 40       	sbci	r21, 0x00	; 0
 15a:	e0 ec       	ldi	r30, 0xC0	; 192
 15c:	f0 e0       	ldi	r31, 0x00	; 0
 15e:	24 83       	std	Z+4, r18	; 0x04
 160:	23 2f       	mov	r18, r19
 162:	34 2f       	mov	r19, r20
 164:	45 2f       	mov	r20, r21
 166:	55 27       	eor	r21, r21
 168:	25 83       	std	Z+5, r18	; 0x05
 16a:	f6 01       	movw	r30, r12
 16c:	e4 82       	std	Z+4, r14	; 0x04
 16e:	f5 82       	std	Z+5, r15	; 0x05
 170:	06 83       	std	Z+6, r16	; 0x06
 172:	17 83       	std	Z+7, r17	; 0x07
 174:	1f 91       	pop	r17
 176:	0f 91       	pop	r16
 178:	ff 90       	pop	r15
 17a:	ef 90       	pop	r14
 17c:	df 90       	pop	r13
 17e:	cf 90       	pop	r12
 180:	08 95       	ret

00000182 <serialWriteBlock>:
 182:	80 91 c1 00 	lds	r24, 0x00C1
 186:	88 60       	ori	r24, 0x08	; 8
 188:	e0 ec       	ldi	r30, 0xC0	; 192
 18a:	f0 e0       	ldi	r31, 0x00	; 0
 18c:	81 83       	std	Z+1, r24	; 0x01
 18e:	80 91 c0 00 	lds	r24, 0x00C0
 192:	80 64       	ori	r24, 0x40	; 64
 194:	80 93 c0 00 	sts	0x00C0, r24
 198:	20 e0       	ldi	r18, 0x00	; 0
 19a:	30 e0       	ldi	r19, 0x00	; 0
 19c:	a0 ec       	ldi	r26, 0xC0	; 192
 19e:	b0 e0       	ldi	r27, 0x00	; 0
 1a0:	0d c0       	rjmp	.+26     	; 0x1bc <serialWriteBlock+0x3a>
 1a2:	fa 01       	movw	r30, r20
 1a4:	e2 0f       	add	r30, r18
 1a6:	f3 1f       	adc	r31, r19
 1a8:	80 81       	ld	r24, Z
 1aa:	16 96       	adiw	r26, 0x06	; 6
 1ac:	8c 93       	st	X, r24
 1ae:	16 97       	sbiw	r26, 0x06	; 6
 1b0:	80 91 c0 00 	lds	r24, 0x00C0
 1b4:	85 ff       	sbrs	r24, 5
 1b6:	fc cf       	rjmp	.-8      	; 0x1b0 <serialWriteBlock+0x2e>
 1b8:	2f 5f       	subi	r18, 0xFF	; 255
 1ba:	3f 4f       	sbci	r19, 0xFF	; 255
 1bc:	26 17       	cp	r18, r22
 1be:	37 07       	cpc	r19, r23
 1c0:	80 f3       	brcs	.-32     	; 0x1a2 <serialWriteBlock+0x20>
 1c2:	80 91 c0 00 	lds	r24, 0x00C0
 1c6:	86 ff       	sbrs	r24, 6
 1c8:	fc cf       	rjmp	.-8      	; 0x1c2 <serialWriteBlock+0x40>
 1ca:	80 91 c1 00 	lds	r24, 0x00C1
 1ce:	87 7f       	andi	r24, 0xF7	; 247
 1d0:	e0 ec       	ldi	r30, 0xC0	; 192
 1d2:	f0 e0       	ldi	r31, 0x00	; 0
 1d4:	81 83       	std	Z+1, r24	; 0x01
 1d6:	08 95       	ret

000001d8 <put>:
 1d8:	08 95       	ret

000001da <reg>:
 1da:	08 95       	ret

000001dc <main>:
 1dc:	cf 93       	push	r28
 1de:	df 93       	push	r29
 1e0:	80 e0       	ldi	r24, 0x00	; 0
 1e2:	91 e0       	ldi	r25, 0x01	; 1
 1e4:	40 e8       	ldi	r20, 0x80	; 128
 1e6:	55 e2       	ldi	r21, 0x25	; 37
 1e8:	60 e0       	ldi	r22, 0x00	; 0
 1ea:	70 e0       	ldi	r23, 0x00	; 0
 1ec:	0e 94 98 00 	call	0x130	; 0x130 <serialInit>
 1f0:	c0 e9       	ldi	r28, 0x90	; 144
 1f2:	d1 e0       	ldi	r29, 0x01	; 1
 1f4:	80 e0       	ldi	r24, 0x00	; 0
 1f6:	91 e0       	ldi	r25, 0x01	; 1
 1f8:	6f e0       	ldi	r22, 0x0F	; 15
 1fa:	70 e0       	ldi	r23, 0x00	; 0
 1fc:	48 e0       	ldi	r20, 0x08	; 8
 1fe:	51 e0       	ldi	r21, 0x01	; 1
 200:	0e 94 c1 00 	call	0x182	; 0x182 <serialWriteBlock>
 204:	88 ee       	ldi	r24, 0xE8	; 232
 206:	93 e0       	ldi	r25, 0x03	; 3
 208:	fe 01       	movw	r30, r28
 20a:	31 97       	sbiw	r30, 0x01	; 1
 20c:	f1 f7       	brne	.-4      	; 0x20a <main+0x2e>
 20e:	01 97       	sbiw	r24, 0x01	; 1
 210:	d9 f7       	brne	.-10     	; 0x208 <main+0x2c>
 212:	f0 cf       	rjmp	.-32     	; 0x1f4 <main+0x18>

00000214 <usbFunctionSetup>:
 214:	fc 01       	movw	r30, r24
 216:	80 81       	ld	r24, Z
 218:	80 76       	andi	r24, 0x60	; 96
 21a:	80 32       	cpi	r24, 0x20	; 32
 21c:	e1 f4       	brne	.+56     	; 0x256 <usbFunctionSetup+0x42>
 21e:	81 81       	ldd	r24, Z+1	; 0x01
 220:	81 30       	cpi	r24, 0x01	; 1
 222:	41 f4       	brne	.+16     	; 0x234 <usbFunctionSetup+0x20>
 224:	8a e1       	ldi	r24, 0x1A	; 26
 226:	91 e0       	ldi	r25, 0x01	; 1
 228:	90 93 3a 01 	sts	0x013A, r25
 22c:	80 93 39 01 	sts	0x0139, r24
 230:	84 e0       	ldi	r24, 0x04	; 4
 232:	08 95       	ret
 234:	82 30       	cpi	r24, 0x02	; 2
 236:	41 f4       	brne	.+16     	; 0x248 <usbFunctionSetup+0x34>
 238:	87 e1       	ldi	r24, 0x17	; 23
 23a:	91 e0       	ldi	r25, 0x01	; 1
 23c:	90 93 3a 01 	sts	0x013A, r25
 240:	80 93 39 01 	sts	0x0139, r24
 244:	81 e0       	ldi	r24, 0x01	; 1
 246:	08 95       	ret
 248:	8a 30       	cpi	r24, 0x0A	; 10
 24a:	29 f4       	brne	.+10     	; 0x256 <usbFunctionSetup+0x42>
 24c:	83 81       	ldd	r24, Z+3	; 0x03
 24e:	80 93 17 01 	sts	0x0117, r24
 252:	80 e0       	ldi	r24, 0x00	; 0
 254:	08 95       	ret
 256:	80 e0       	ldi	r24, 0x00	; 0
 258:	08 95       	ret

0000025a <updateUSB>:
 25a:	0e 94 49 01 	call	0x292	; 0x292 <usbPoll>
 25e:	80 91 2a 01 	lds	r24, 0x012A
 262:	84 ff       	sbrs	r24, 4
 264:	08 c0       	rjmp	.+16     	; 0x276 <updateUSB+0x1c>
 266:	81 e0       	ldi	r24, 0x01	; 1
 268:	80 93 1b 01 	sts	0x011B, r24
 26c:	8a e1       	ldi	r24, 0x1A	; 26
 26e:	91 e0       	ldi	r25, 0x01	; 1
 270:	64 e0       	ldi	r22, 0x04	; 4
 272:	0e 94 4b 02 	call	0x496	; 0x496 <usbSetInterrupt>
 276:	08 95       	ret

00000278 <usbInit>:
 278:	e9 e6       	ldi	r30, 0x69	; 105
 27a:	f0 e0       	ldi	r31, 0x00	; 0
 27c:	80 81       	ld	r24, Z
 27e:	82 60       	ori	r24, 0x02	; 2
 280:	80 83       	st	Z, r24
 282:	e8 9a       	sbi	0x1d, 0	; 29
 284:	8b e4       	ldi	r24, 0x4B	; 75
 286:	80 93 2b 01 	sts	0x012B, r24
 28a:	8a e5       	ldi	r24, 0x5A	; 90
 28c:	80 93 2a 01 	sts	0x012A, r24
 290:	08 95       	ret

00000292 <usbPoll>:
 292:	1f 93       	push	r17
 294:	cf 93       	push	r28
 296:	df 93       	push	r29
 298:	90 91 3b 01 	lds	r25, 0x013B
 29c:	93 50       	subi	r25, 0x03	; 3
 29e:	97 fd       	sbrc	r25, 7
 2a0:	a2 c0       	rjmp	.+324    	; 0x3e6 <usbPoll+0x154>
 2a2:	20 91 38 01 	lds	r18, 0x0138
 2a6:	80 91 37 01 	lds	r24, 0x0137
 2aa:	8d 32       	cpi	r24, 0x2D	; 45
 2ac:	09 f0       	breq	.+2      	; 0x2b0 <usbPoll+0x1e>
 2ae:	99 c0       	rjmp	.+306    	; 0x3e2 <usbPoll+0x150>
 2b0:	98 30       	cpi	r25, 0x08	; 8
 2b2:	09 f0       	breq	.+2      	; 0x2b6 <usbPoll+0x24>
 2b4:	96 c0       	rjmp	.+300    	; 0x3e2 <usbPoll+0x150>
 2b6:	cc e0       	ldi	r28, 0x0C	; 12
 2b8:	d0 e0       	ldi	r29, 0x00	; 0
 2ba:	c2 1b       	sub	r28, r18
 2bc:	d1 09       	sbc	r29, r1
 2be:	c1 5c       	subi	r28, 0xC1	; 193
 2c0:	de 4f       	sbci	r29, 0xFE	; 254
 2c2:	83 ec       	ldi	r24, 0xC3	; 195
 2c4:	80 93 1f 01 	sts	0x011F, r24
 2c8:	8a e5       	ldi	r24, 0x5A	; 90
 2ca:	80 93 18 01 	sts	0x0118, r24
 2ce:	10 92 1e 01 	sts	0x011E, r1
 2d2:	88 81       	ld	r24, Y
 2d4:	80 76       	andi	r24, 0x60	; 96
 2d6:	29 f0       	breq	.+10     	; 0x2e2 <usbPoll+0x50>
 2d8:	ce 01       	movw	r24, r28
 2da:	0e 94 0a 01 	call	0x214	; 0x214 <usbFunctionSetup>
 2de:	28 2f       	mov	r18, r24
 2e0:	77 c0       	rjmp	.+238    	; 0x3d0 <usbPoll+0x13e>
 2e2:	9a 81       	ldd	r25, Y+2	; 0x02
 2e4:	10 92 28 01 	sts	0x0128, r1
 2e8:	89 81       	ldd	r24, Y+1	; 0x01
 2ea:	88 23       	and	r24, r24
 2ec:	21 f4       	brne	.+8      	; 0x2f6 <usbPoll+0x64>
 2ee:	10 92 29 01 	sts	0x0129, r1
 2f2:	22 e0       	ldi	r18, 0x02	; 2
 2f4:	67 c0       	rjmp	.+206    	; 0x3c4 <usbPoll+0x132>
 2f6:	85 30       	cpi	r24, 0x05	; 5
 2f8:	19 f4       	brne	.+6      	; 0x300 <usbPoll+0x6e>
 2fa:	90 93 3c 01 	sts	0x013C, r25
 2fe:	61 c0       	rjmp	.+194    	; 0x3c2 <usbPoll+0x130>
 300:	86 30       	cpi	r24, 0x06	; 6
 302:	09 f0       	breq	.+2      	; 0x306 <usbPoll+0x74>
 304:	4a c0       	rjmp	.+148    	; 0x39a <usbPoll+0x108>
 306:	8b 81       	ldd	r24, Y+3	; 0x03
 308:	81 30       	cpi	r24, 0x01	; 1
 30a:	19 f4       	brne	.+6      	; 0x312 <usbPoll+0x80>
 30c:	8e eb       	ldi	r24, 0xBE	; 190
 30e:	90 e0       	ldi	r25, 0x00	; 0
 310:	1b c0       	rjmp	.+54     	; 0x348 <usbPoll+0xb6>
 312:	82 30       	cpi	r24, 0x02	; 2
 314:	41 f4       	brne	.+16     	; 0x326 <usbPoll+0x94>
 316:	80 ed       	ldi	r24, 0xD0	; 208
 318:	90 e0       	ldi	r25, 0x00	; 0
 31a:	90 93 3a 01 	sts	0x013A, r25
 31e:	80 93 39 01 	sts	0x0139, r24
 322:	22 e2       	ldi	r18, 0x22	; 34
 324:	36 c0       	rjmp	.+108    	; 0x392 <usbPoll+0x100>
 326:	83 30       	cpi	r24, 0x03	; 3
 328:	f9 f4       	brne	.+62     	; 0x368 <usbPoll+0xd6>
 32a:	8a 81       	ldd	r24, Y+2	; 0x02
 32c:	88 23       	and	r24, r24
 32e:	41 f4       	brne	.+16     	; 0x340 <usbPoll+0xae>
 330:	8c e9       	ldi	r24, 0x9C	; 156
 332:	90 e0       	ldi	r25, 0x00	; 0
 334:	90 93 3a 01 	sts	0x013A, r25
 338:	80 93 39 01 	sts	0x0139, r24
 33c:	24 e0       	ldi	r18, 0x04	; 4
 33e:	29 c0       	rjmp	.+82     	; 0x392 <usbPoll+0x100>
 340:	81 30       	cpi	r24, 0x01	; 1
 342:	41 f4       	brne	.+16     	; 0x354 <usbPoll+0xc2>
 344:	80 ea       	ldi	r24, 0xA0	; 160
 346:	90 e0       	ldi	r25, 0x00	; 0
 348:	90 93 3a 01 	sts	0x013A, r25
 34c:	80 93 39 01 	sts	0x0139, r24
 350:	22 e1       	ldi	r18, 0x12	; 18
 352:	1f c0       	rjmp	.+62     	; 0x392 <usbPoll+0x100>
 354:	82 30       	cpi	r24, 0x02	; 2
 356:	e1 f4       	brne	.+56     	; 0x390 <usbPoll+0xfe>
 358:	82 eb       	ldi	r24, 0xB2	; 178
 35a:	90 e0       	ldi	r25, 0x00	; 0
 35c:	90 93 3a 01 	sts	0x013A, r25
 360:	80 93 39 01 	sts	0x0139, r24
 364:	2c e0       	ldi	r18, 0x0C	; 12
 366:	15 c0       	rjmp	.+42     	; 0x392 <usbPoll+0x100>
 368:	81 32       	cpi	r24, 0x21	; 33
 36a:	41 f4       	brne	.+16     	; 0x37c <usbPoll+0xea>
 36c:	82 ee       	ldi	r24, 0xE2	; 226
 36e:	90 e0       	ldi	r25, 0x00	; 0
 370:	90 93 3a 01 	sts	0x013A, r25
 374:	80 93 39 01 	sts	0x0139, r24
 378:	29 e0       	ldi	r18, 0x09	; 9
 37a:	0b c0       	rjmp	.+22     	; 0x392 <usbPoll+0x100>
 37c:	82 32       	cpi	r24, 0x22	; 34
 37e:	41 f4       	brne	.+16     	; 0x390 <usbPoll+0xfe>
 380:	88 e6       	ldi	r24, 0x68	; 104
 382:	90 e0       	ldi	r25, 0x00	; 0
 384:	90 93 3a 01 	sts	0x013A, r25
 388:	80 93 39 01 	sts	0x0139, r24
 38c:	24 e3       	ldi	r18, 0x34	; 52
 38e:	01 c0       	rjmp	.+2      	; 0x392 <usbPoll+0x100>
 390:	20 e0       	ldi	r18, 0x00	; 0
 392:	80 e4       	ldi	r24, 0x40	; 64
 394:	80 93 1e 01 	sts	0x011E, r24
 398:	1b c0       	rjmp	.+54     	; 0x3d0 <usbPoll+0x13e>
 39a:	88 30       	cpi	r24, 0x08	; 8
 39c:	21 f4       	brne	.+8      	; 0x3a6 <usbPoll+0x114>
 39e:	21 e0       	ldi	r18, 0x01	; 1
 3a0:	8e e3       	ldi	r24, 0x3E	; 62
 3a2:	91 e0       	ldi	r25, 0x01	; 1
 3a4:	11 c0       	rjmp	.+34     	; 0x3c8 <usbPoll+0x136>
 3a6:	89 30       	cpi	r24, 0x09	; 9
 3a8:	19 f4       	brne	.+6      	; 0x3b0 <usbPoll+0x11e>
 3aa:	90 93 3e 01 	sts	0x013E, r25
 3ae:	09 c0       	rjmp	.+18     	; 0x3c2 <usbPoll+0x130>
 3b0:	8a 30       	cpi	r24, 0x0A	; 10
 3b2:	11 f4       	brne	.+4      	; 0x3b8 <usbPoll+0x126>
 3b4:	21 e0       	ldi	r18, 0x01	; 1
 3b6:	06 c0       	rjmp	.+12     	; 0x3c4 <usbPoll+0x132>
 3b8:	8b 30       	cpi	r24, 0x0B	; 11
 3ba:	19 f4       	brne	.+6      	; 0x3c2 <usbPoll+0x130>
 3bc:	8b e4       	ldi	r24, 0x4B	; 75
 3be:	80 93 2b 01 	sts	0x012B, r24
 3c2:	20 e0       	ldi	r18, 0x00	; 0
 3c4:	88 e2       	ldi	r24, 0x28	; 40
 3c6:	91 e0       	ldi	r25, 0x01	; 1
 3c8:	90 93 3a 01 	sts	0x013A, r25
 3cc:	80 93 39 01 	sts	0x0139, r24
 3d0:	8f 81       	ldd	r24, Y+7	; 0x07
 3d2:	88 23       	and	r24, r24
 3d4:	21 f4       	brne	.+8      	; 0x3de <usbPoll+0x14c>
 3d6:	8e 81       	ldd	r24, Y+6	; 0x06
 3d8:	82 17       	cp	r24, r18
 3da:	08 f4       	brcc	.+2      	; 0x3de <usbPoll+0x14c>
 3dc:	28 2f       	mov	r18, r24
 3de:	20 93 19 01 	sts	0x0119, r18
 3e2:	10 92 3b 01 	sts	0x013B, r1
 3e6:	80 91 18 01 	lds	r24, 0x0118
 3ea:	84 ff       	sbrs	r24, 4
 3ec:	46 c0       	rjmp	.+140    	; 0x47a <usbPoll+0x1e8>
 3ee:	80 91 19 01 	lds	r24, 0x0119
 3f2:	8f 3f       	cpi	r24, 0xFF	; 255
 3f4:	09 f4       	brne	.+2      	; 0x3f8 <usbPoll+0x166>
 3f6:	41 c0       	rjmp	.+130    	; 0x47a <usbPoll+0x1e8>
 3f8:	18 2f       	mov	r17, r24
 3fa:	89 30       	cpi	r24, 0x09	; 9
 3fc:	08 f0       	brcs	.+2      	; 0x400 <usbPoll+0x16e>
 3fe:	18 e0       	ldi	r17, 0x08	; 8
 400:	81 1b       	sub	r24, r17
 402:	80 93 19 01 	sts	0x0119, r24
 406:	80 91 1f 01 	lds	r24, 0x011F
 40a:	98 e8       	ldi	r25, 0x88	; 136
 40c:	89 27       	eor	r24, r25
 40e:	80 93 1f 01 	sts	0x011F, r24
 412:	11 23       	and	r17, r17
 414:	21 f1       	breq	.+72     	; 0x45e <usbPoll+0x1cc>
 416:	20 91 39 01 	lds	r18, 0x0139
 41a:	30 91 3a 01 	lds	r19, 0x013A
 41e:	80 91 1e 01 	lds	r24, 0x011E
 422:	86 ff       	sbrs	r24, 6
 424:	0a c0       	rjmp	.+20     	; 0x43a <usbPoll+0x1a8>
 426:	91 2f       	mov	r25, r17
 428:	f9 01       	movw	r30, r18
 42a:	a0 e2       	ldi	r26, 0x20	; 32
 42c:	b1 e0       	ldi	r27, 0x01	; 1
 42e:	84 91       	lpm	r24, Z+
 430:	8d 93       	st	X+, r24
 432:	31 96       	adiw	r30, 0x01	; 1
 434:	91 50       	subi	r25, 0x01	; 1
 436:	d9 f7       	brne	.-10     	; 0x42e <usbPoll+0x19c>
 438:	08 c0       	rjmp	.+16     	; 0x44a <usbPoll+0x1b8>
 43a:	91 2f       	mov	r25, r17
 43c:	d9 01       	movw	r26, r18
 43e:	e0 e2       	ldi	r30, 0x20	; 32
 440:	f1 e0       	ldi	r31, 0x01	; 1
 442:	8d 91       	ld	r24, X+
 444:	81 93       	st	Z+, r24
 446:	91 50       	subi	r25, 0x01	; 1
 448:	e1 f7       	brne	.-8      	; 0x442 <usbPoll+0x1b0>
 44a:	c9 01       	movw	r24, r18
 44c:	01 96       	adiw	r24, 0x01	; 1
 44e:	11 50       	subi	r17, 0x01	; 1
 450:	81 0f       	add	r24, r17
 452:	91 1d       	adc	r25, r1
 454:	1f 5f       	subi	r17, 0xFF	; 255
 456:	90 93 3a 01 	sts	0x013A, r25
 45a:	80 93 39 01 	sts	0x0139, r24
 45e:	80 e2       	ldi	r24, 0x20	; 32
 460:	91 e0       	ldi	r25, 0x01	; 1
 462:	61 2f       	mov	r22, r17
 464:	0e 94 83 02 	call	0x506	; 0x506 <usbCrc16Append>
 468:	61 2f       	mov	r22, r17
 46a:	6c 5f       	subi	r22, 0xFC	; 252
 46c:	6c 30       	cpi	r22, 0x0C	; 12
 46e:	19 f0       	breq	.+6      	; 0x476 <usbPoll+0x1e4>
 470:	8f ef       	ldi	r24, 0xFF	; 255
 472:	80 93 19 01 	sts	0x0119, r24
 476:	60 93 18 01 	sts	0x0118, r22
 47a:	94 e1       	ldi	r25, 0x14	; 20
 47c:	89 b1       	in	r24, 0x09	; 9
 47e:	8c 70       	andi	r24, 0x0C	; 12
 480:	31 f4       	brne	.+12     	; 0x48e <usbPoll+0x1fc>
 482:	91 50       	subi	r25, 0x01	; 1
 484:	d9 f7       	brne	.-10     	; 0x47c <usbPoll+0x1ea>
 486:	10 92 3c 01 	sts	0x013C, r1
 48a:	10 92 36 01 	sts	0x0136, r1
 48e:	df 91       	pop	r29
 490:	cf 91       	pop	r28
 492:	1f 91       	pop	r17
 494:	08 95       	ret

00000496 <usbSetInterrupt>:
 496:	1f 93       	push	r17
 498:	dc 01       	movw	r26, r24
 49a:	16 2f       	mov	r17, r22
 49c:	80 91 2a 01 	lds	r24, 0x012A
 4a0:	84 ff       	sbrs	r24, 4
 4a2:	07 c0       	rjmp	.+14     	; 0x4b2 <usbSetInterrupt+0x1c>
 4a4:	80 91 2b 01 	lds	r24, 0x012B
 4a8:	98 e8       	ldi	r25, 0x88	; 136
 4aa:	89 27       	eor	r24, r25
 4ac:	80 93 2b 01 	sts	0x012B, r24
 4b0:	03 c0       	rjmp	.+6      	; 0x4b8 <usbSetInterrupt+0x22>
 4b2:	8a e5       	ldi	r24, 0x5A	; 90
 4b4:	80 93 2a 01 	sts	0x012A, r24
 4b8:	91 2f       	mov	r25, r17
 4ba:	ec e2       	ldi	r30, 0x2C	; 44
 4bc:	f1 e0       	ldi	r31, 0x01	; 1
 4be:	8d 91       	ld	r24, X+
 4c0:	81 93       	st	Z+, r24
 4c2:	91 50       	subi	r25, 0x01	; 1
 4c4:	19 16       	cp	r1, r25
 4c6:	dc f3       	brlt	.-10     	; 0x4be <usbSetInterrupt+0x28>
 4c8:	8c e2       	ldi	r24, 0x2C	; 44
 4ca:	91 e0       	ldi	r25, 0x01	; 1
 4cc:	61 2f       	mov	r22, r17
 4ce:	0e 94 83 02 	call	0x506	; 0x506 <usbCrc16Append>
 4d2:	1c 5f       	subi	r17, 0xFC	; 252
 4d4:	10 93 2a 01 	sts	0x012A, r17
 4d8:	1f 91       	pop	r17
 4da:	08 95       	ret

000004dc <usbCrc16>:
 4dc:	a8 2f       	mov	r26, r24
 4de:	b9 2f       	mov	r27, r25
 4e0:	80 e0       	ldi	r24, 0x00	; 0
 4e2:	90 e0       	ldi	r25, 0x00	; 0
 4e4:	41 e0       	ldi	r20, 0x01	; 1
 4e6:	50 ea       	ldi	r21, 0xA0	; 160
 4e8:	60 95       	com	r22
 4ea:	30 e0       	ldi	r19, 0x00	; 0
 4ec:	09 c0       	rjmp	.+18     	; 0x500 <usbCrcLoopEntry>

000004ee <usbCrcByteLoop>:
 4ee:	2d 91       	ld	r18, X+
 4f0:	82 27       	eor	r24, r18

000004f2 <usbCrcBitLoop>:
 4f2:	97 95       	ror	r25
 4f4:	87 95       	ror	r24
 4f6:	10 f0       	brcs	.+4      	; 0x4fc <usbCrcNoXor>
 4f8:	84 27       	eor	r24, r20
 4fa:	95 27       	eor	r25, r21

000004fc <usbCrcNoXor>:
 4fc:	30 5e       	subi	r19, 0xE0	; 224
 4fe:	c8 f3       	brcs	.-14     	; 0x4f2 <usbCrcBitLoop>

00000500 <usbCrcLoopEntry>:
 500:	6f 5f       	subi	r22, 0xFF	; 255
 502:	a8 f3       	brcs	.-22     	; 0x4ee <usbCrcByteLoop>

00000504 <usbCrcReady>:
 504:	08 95       	ret

00000506 <usbCrc16Append>:
 506:	ea df       	rcall	.-44     	; 0x4dc <usbCrc16>
 508:	8d 93       	st	X+, r24
 50a:	9d 93       	st	X+, r25
 50c:	08 95       	ret

0000050e <__vector_1>:
 50e:	cf 93       	push	r28
 510:	cf b7       	in	r28, 0x3f	; 63
 512:	cf 93       	push	r28
 514:	df 93       	push	r29

00000516 <waitForJ>:
 516:	c3 95       	inc	r28
 518:	4b 9b       	sbis	0x09, 3	; 9
 51a:	e9 f7       	brne	.-6      	; 0x516 <waitForJ>

0000051c <waitForK>:
 51c:	4b 9b       	sbis	0x09, 3	; 9
 51e:	0b c0       	rjmp	.+22     	; 0x536 <foundK>
 520:	4b 9b       	sbis	0x09, 3	; 9
 522:	09 c0       	rjmp	.+18     	; 0x536 <foundK>
 524:	4b 9b       	sbis	0x09, 3	; 9
 526:	07 c0       	rjmp	.+14     	; 0x536 <foundK>
 528:	4b 9b       	sbis	0x09, 3	; 9
 52a:	05 c0       	rjmp	.+10     	; 0x536 <foundK>
 52c:	4b 9b       	sbis	0x09, 3	; 9
 52e:	03 c0       	rjmp	.+6      	; 0x536 <foundK>
 530:	4b 9b       	sbis	0x09, 3	; 9
 532:	01 c0       	rjmp	.+2      	; 0x536 <foundK>
 534:	8b c0       	rjmp	.+278    	; 0x64c <sofError>

00000536 <foundK>:
 536:	6f 93       	push	r22
 538:	c0 91 38 01 	lds	r28, 0x0138
 53c:	dd 27       	eor	r29, r29
 53e:	c1 5c       	subi	r28, 0xC1	; 193
 540:	de 4f       	sbci	r29, 0xFE	; 254
 542:	2f 93       	push	r18
 544:	65 e5       	ldi	r22, 0x55	; 85
 546:	4b 9b       	sbis	0x09, 3	; 9
 548:	03 c0       	rjmp	.+6      	; 0x550 <haveTwoBitsK>
 54a:	2f 91       	pop	r18
 54c:	6f 91       	pop	r22
 54e:	e6 cf       	rjmp	.-52     	; 0x51c <waitForK>

00000550 <haveTwoBitsK>:
 550:	0f 93       	push	r16
 552:	1f 93       	push	r17
 554:	4f 93       	push	r20
 556:	20 e0       	ldi	r18, 0x00	; 0
 558:	40 e1       	ldi	r20, 0x10	; 16
 55a:	5f 93       	push	r21
 55c:	09 b1       	in	r16, 0x09	; 9
 55e:	0c 70       	andi	r16, 0x0C	; 12
 560:	03 fb       	bst	r16, 3
 562:	27 f9       	bld	r18, 7
 564:	3f 93       	push	r19
 566:	50 e0       	ldi	r21, 0x00	; 0
 568:	3b e0       	ldi	r19, 0x0B	; 11
 56a:	39 c0       	rjmp	.+114    	; 0x5de <rxbit1>

0000056c <unstuff6>:
 56c:	1c 70       	andi	r17, 0x0C	; 12
 56e:	40 64       	ori	r20, 0x40	; 64
 570:	2f 77       	andi	r18, 0x7F	; 127
 572:	01 2f       	mov	r16, r17
 574:	5f 5f       	subi	r21, 0xFF	; 255
 576:	1e c0       	rjmp	.+60     	; 0x5b4 <didUnstuff6>

00000578 <unstuff7>:
 578:	40 68       	ori	r20, 0x80	; 128
 57a:	19 b1       	in	r17, 0x09	; 9
 57c:	1c 70       	andi	r17, 0x0C	; 12
 57e:	2f 77       	andi	r18, 0x7F	; 127
 580:	52 50       	subi	r21, 0x02	; 2
 582:	1f c0       	rjmp	.+62     	; 0x5c2 <didUnstuff7>

00000584 <unstuffEven>:
 584:	40 64       	ori	r20, 0x40	; 64
 586:	09 b1       	in	r16, 0x09	; 9
 588:	2f 77       	andi	r18, 0x7F	; 127
 58a:	0c 70       	andi	r16, 0x0C	; 12
 58c:	d1 f1       	breq	.+116    	; 0x602 <se0>
 58e:	5f 5f       	subi	r21, 0xFF	; 255
 590:	00 c0       	rjmp	.+0      	; 0x592 <unstuffEven+0xe>
 592:	23 c0       	rjmp	.+70     	; 0x5da <didUnstuffE>

00000594 <unstuffOdd>:
 594:	40 62       	ori	r20, 0x20	; 32
 596:	19 b1       	in	r17, 0x09	; 9
 598:	2f 77       	andi	r18, 0x7F	; 127
 59a:	1c 70       	andi	r17, 0x0C	; 12
 59c:	91 f1       	breq	.+100    	; 0x602 <se0>
 59e:	5f 5f       	subi	r21, 0xFF	; 255
 5a0:	00 c0       	rjmp	.+0      	; 0x5a2 <unstuffOdd+0xe>
 5a2:	25 c0       	rjmp	.+74     	; 0x5ee <didUnstuffO>

000005a4 <rxByteLoop>:
 5a4:	0c 70       	andi	r16, 0x0C	; 12
 5a6:	10 27       	eor	r17, r16
 5a8:	51 50       	subi	r21, 0x01	; 1
 5aa:	12 f4       	brpl	.+4      	; 0x5b0 <skipLeap>
 5ac:	5d 5f       	subi	r21, 0xFD	; 253
	...

000005b0 <skipLeap>:
 5b0:	11 50       	subi	r17, 0x01	; 1
 5b2:	27 95       	ror	r18

000005b4 <didUnstuff6>:
 5b4:	2c 3f       	cpi	r18, 0xFC	; 252
 5b6:	19 b1       	in	r17, 0x09	; 9
 5b8:	c8 f6       	brcc	.-78     	; 0x56c <unstuff6>
 5ba:	1c 70       	andi	r17, 0x0C	; 12
 5bc:	01 27       	eor	r16, r17
 5be:	01 50       	subi	r16, 0x01	; 1
 5c0:	27 95       	ror	r18

000005c2 <didUnstuff7>:
 5c2:	2c 3f       	cpi	r18, 0xFC	; 252
 5c4:	c8 f6       	brcc	.-78     	; 0x578 <unstuff7>
 5c6:	42 27       	eor	r20, r18
 5c8:	49 93       	st	Y+, r20

000005ca <rxBitLoop>:
 5ca:	09 b1       	in	r16, 0x09	; 9
 5cc:	0c 70       	andi	r16, 0x0C	; 12
 5ce:	10 27       	eor	r17, r16
 5d0:	4f 73       	andi	r20, 0x3F	; 63
 5d2:	11 50       	subi	r17, 0x01	; 1
 5d4:	27 95       	ror	r18
 5d6:	2c 3f       	cpi	r18, 0xFC	; 252
 5d8:	a8 f6       	brcc	.-86     	; 0x584 <unstuffEven>

000005da <didUnstuffE>:
 5da:	46 95       	lsr	r20
 5dc:	46 95       	lsr	r20

000005de <rxbit1>:
 5de:	19 b1       	in	r17, 0x09	; 9
 5e0:	1c 70       	andi	r17, 0x0C	; 12
 5e2:	79 f0       	breq	.+30     	; 0x602 <se0>
 5e4:	01 27       	eor	r16, r17
 5e6:	01 50       	subi	r16, 0x01	; 1
 5e8:	27 95       	ror	r18
 5ea:	2c 3f       	cpi	r18, 0xFC	; 252
 5ec:	98 f6       	brcc	.-90     	; 0x594 <unstuffOdd>

000005ee <didUnstuffO>:
 5ee:	6b 5a       	subi	r22, 0xAB	; 171
 5f0:	60 f3       	brcs	.-40     	; 0x5ca <rxBitLoop>
 5f2:	31 50       	subi	r19, 0x01	; 1
 5f4:	09 b1       	in	r16, 0x09	; 9
 5f6:	b0 f6       	brcc	.-84     	; 0x5a4 <rxByteLoop>
 5f8:	00 c0       	rjmp	.+0      	; 0x5fa <overflow>

000005fa <overflow>:
 5fa:	11 e0       	ldi	r17, 0x01	; 1
 5fc:	1c bb       	out	0x1c, r17	; 28

000005fe <ignorePacket>:
 5fe:	00 27       	eor	r16, r16
 600:	19 c0       	rjmp	.+50     	; 0x634 <handleSetupOrOut>

00000602 <se0>:
 602:	3b 50       	subi	r19, 0x0B	; 11
 604:	31 95       	neg	r19
 606:	c3 1b       	sub	r28, r19
 608:	d0 40       	sbci	r29, 0x00	; 0
 60a:	11 e0       	ldi	r17, 0x01	; 1
 60c:	1c bb       	out	0x1c, r17	; 28
 60e:	08 81       	ld	r16, Y
 610:	03 3c       	cpi	r16, 0xC3	; 195
 612:	09 f1       	breq	.+66     	; 0x656 <handleData>
 614:	0b 34       	cpi	r16, 0x4B	; 75
 616:	f9 f0       	breq	.+62     	; 0x656 <handleData>
 618:	20 91 36 01 	lds	r18, 0x0136
 61c:	19 81       	ldd	r17, Y+1	; 0x01
 61e:	11 0f       	add	r17, r17
 620:	12 13       	cpse	r17, r18
 622:	ed cf       	rjmp	.-38     	; 0x5fe <ignorePacket>
 624:	4a 81       	ldd	r20, Y+2	; 0x02
 626:	44 1f       	adc	r20, r20
 628:	09 36       	cpi	r16, 0x69	; 105
 62a:	51 f1       	breq	.+84     	; 0x680 <handleIn>
 62c:	0d 32       	cpi	r16, 0x2D	; 45
 62e:	11 f0       	breq	.+4      	; 0x634 <handleSetupOrOut>
 630:	01 3e       	cpi	r16, 0xE1	; 225
 632:	29 f7       	brne	.-54     	; 0x5fe <ignorePacket>

00000634 <handleSetupOrOut>:
 634:	00 93 3d 01 	sts	0x013D, r16

00000638 <doReturn>:
 638:	3f 91       	pop	r19
 63a:	5f 91       	pop	r21
 63c:	4f 91       	pop	r20
 63e:	1f 91       	pop	r17
 640:	0f 91       	pop	r16
 642:	2f 91       	pop	r18
 644:	6f 91       	pop	r22
 646:	cc b3       	in	r28, 0x1c	; 28
 648:	c0 fd       	sbrc	r28, 0
 64a:	65 cf       	rjmp	.-310    	; 0x516 <waitForJ>

0000064c <sofError>:
 64c:	df 91       	pop	r29
 64e:	cf 91       	pop	r28
 650:	cf bf       	out	0x3f, r28	; 63
 652:	cf 91       	pop	r28
 654:	18 95       	reti

00000656 <handleData>:
 656:	20 91 3d 01 	lds	r18, 0x013D
 65a:	22 23       	and	r18, r18
 65c:	69 f3       	breq	.-38     	; 0x638 <doReturn>
 65e:	10 91 3b 01 	lds	r17, 0x013B
 662:	11 23       	and	r17, r17
 664:	91 f5       	brne	.+100    	; 0x6ca <sendNakAndReti>
 666:	34 30       	cpi	r19, 0x04	; 4
 668:	92 f1       	brmi	.+100    	; 0x6ce <sendAckAndReti>
 66a:	30 93 3b 01 	sts	0x013B, r19
 66e:	20 93 37 01 	sts	0x0137, r18
 672:	10 91 38 01 	lds	r17, 0x0138
 676:	3b e0       	ldi	r19, 0x0B	; 11
 678:	31 1b       	sub	r19, r17
 67a:	30 93 38 01 	sts	0x0138, r19
 67e:	27 c0       	rjmp	.+78     	; 0x6ce <sendAckAndReti>

00000680 <handleIn>:
 680:	00 91 3b 01 	lds	r16, 0x013B
 684:	01 30       	cpi	r16, 0x01	; 1
 686:	0c f5       	brge	.+66     	; 0x6ca <sendNakAndReti>
 688:	0a e5       	ldi	r16, 0x5A	; 90
 68a:	4f 70       	andi	r20, 0x0F	; 15
 68c:	49 f4       	brne	.+18     	; 0x6a0 <handleIn1>
 68e:	30 91 18 01 	lds	r19, 0x0118
 692:	34 fd       	sbrc	r19, 4
 694:	1d c0       	rjmp	.+58     	; 0x6d0 <sendCntAndReti>
 696:	00 93 18 01 	sts	0x0118, r16
 69a:	cf e1       	ldi	r28, 0x1F	; 31
 69c:	d1 e0       	ldi	r29, 0x01	; 1
 69e:	1c c0       	rjmp	.+56     	; 0x6d8 <usbSendAndReti>

000006a0 <handleIn1>:
 6a0:	30 91 2a 01 	lds	r19, 0x012A
 6a4:	34 fd       	sbrc	r19, 4
 6a6:	14 c0       	rjmp	.+40     	; 0x6d0 <sendCntAndReti>
 6a8:	00 93 2a 01 	sts	0x012A, r16
 6ac:	cb e2       	ldi	r28, 0x2B	; 43
 6ae:	d1 e0       	ldi	r29, 0x01	; 1
 6b0:	13 c0       	rjmp	.+38     	; 0x6d8 <usbSendAndReti>

000006b2 <bitstuffN>:
 6b2:	05 27       	eor	r16, r21
 6b4:	10 e0       	ldi	r17, 0x00	; 0
 6b6:	00 c0       	rjmp	.+0      	; 0x6b8 <bitstuffN+0x6>
 6b8:	00 00       	nop
 6ba:	0b b9       	out	0x0b, r16	; 11
 6bc:	1a c0       	rjmp	.+52     	; 0x6f2 <didStuffN>

000006be <bitstuff6>:
 6be:	05 27       	eor	r16, r21
 6c0:	10 e0       	ldi	r17, 0x00	; 0
 6c2:	22 1f       	adc	r18, r18
 6c4:	1d c0       	rjmp	.+58     	; 0x700 <didStuff6>

000006c6 <bitstuff7>:
 6c6:	10 e0       	ldi	r17, 0x00	; 0
 6c8:	21 c0       	rjmp	.+66     	; 0x70c <didStuff7>

000006ca <sendNakAndReti>:
 6ca:	4a e5       	ldi	r20, 0x5A	; 90
 6cc:	02 c0       	rjmp	.+4      	; 0x6d2 <sendX3AndReti>

000006ce <sendAckAndReti>:
 6ce:	32 ed       	ldi	r19, 0xD2	; 210

000006d0 <sendCntAndReti>:
 6d0:	43 2f       	mov	r20, r19

000006d2 <sendX3AndReti>:
 6d2:	c4 e1       	ldi	r28, 0x14	; 20
 6d4:	d0 e0       	ldi	r29, 0x00	; 0
 6d6:	32 e0       	ldi	r19, 0x02	; 2

000006d8 <usbSendAndReti>:
 6d8:	1a b1       	in	r17, 0x0a	; 10
 6da:	1c 60       	ori	r17, 0x0C	; 12
 6dc:	5b 9a       	sbi	0x0b, 3	; 11
 6de:	0b b1       	in	r16, 0x0b	; 11
 6e0:	1a b9       	out	0x0a, r17	; 10
 6e2:	5c e0       	ldi	r21, 0x0C	; 12
 6e4:	20 e8       	ldi	r18, 0x80	; 128

000006e6 <txByteLoop>:
 6e6:	65 e3       	ldi	r22, 0x35	; 53

000006e8 <txBitLoop>:
 6e8:	20 ff       	sbrs	r18, 0
 6ea:	05 27       	eor	r16, r21
 6ec:	0b b9       	out	0x0b, r16	; 11
 6ee:	27 95       	ror	r18
 6f0:	17 95       	ror	r17

000006f2 <didStuffN>:
 6f2:	1c 3f       	cpi	r17, 0xFC	; 252
 6f4:	f0 f6       	brcc	.-68     	; 0x6b2 <bitstuffN>
 6f6:	66 95       	lsr	r22
 6f8:	b8 f7       	brcc	.-18     	; 0x6e8 <txBitLoop>
 6fa:	b1 f7       	brne	.-20     	; 0x6e8 <txBitLoop>
 6fc:	20 ff       	sbrs	r18, 0
 6fe:	05 27       	eor	r16, r21

00000700 <didStuff6>:
 700:	0b b9       	out	0x0b, r16	; 11
 702:	27 95       	ror	r18
 704:	17 95       	ror	r17
 706:	1c 3f       	cpi	r17, 0xFC	; 252
 708:	d0 f6       	brcc	.-76     	; 0x6be <bitstuff6>
 70a:	27 95       	ror	r18

0000070c <didStuff7>:
 70c:	17 95       	ror	r17
 70e:	17 ff       	sbrs	r17, 7
 710:	05 27       	eor	r16, r21
 712:	00 00       	nop
 714:	1c 3f       	cpi	r17, 0xFC	; 252
 716:	0b b9       	out	0x0b, r16	; 11
 718:	b0 f6       	brcc	.-84     	; 0x6c6 <bitstuff7>
 71a:	29 91       	ld	r18, Y+
 71c:	3a 95       	dec	r19
 71e:	19 f7       	brne	.-58     	; 0x6e6 <txByteLoop>
 720:	03 7f       	andi	r16, 0xF3	; 243
 722:	10 91 3c 01 	lds	r17, 0x013C
 726:	11 0f       	add	r17, r17
 728:	c6 51       	subi	r28, 0x16	; 22
 72a:	d0 40       	sbci	r29, 0x00	; 0
 72c:	0b b9       	out	0x0b, r16	; 11
 72e:	11 f0       	breq	.+4      	; 0x734 <skipAddrAssign>
 730:	10 93 36 01 	sts	0x0136, r17

00000734 <skipAddrAssign>:
 734:	11 e0       	ldi	r17, 0x01	; 1
 736:	1c bb       	out	0x1c, r17	; 28
 738:	08 60       	ori	r16, 0x08	; 8
 73a:	1a b1       	in	r17, 0x0a	; 10
 73c:	13 7f       	andi	r17, 0xF3	; 243
 73e:	40 2f       	mov	r20, r16
 740:	43 7f       	andi	r20, 0xF3	; 243
 742:	54 e0       	ldi	r21, 0x04	; 4

00000744 <se0Delay>:
 744:	5a 95       	dec	r21
 746:	f1 f7       	brne	.-4      	; 0x744 <se0Delay>
 748:	0b b9       	out	0x0b, r16	; 11
 74a:	1a b9       	out	0x0a, r17	; 10
 74c:	4b b9       	out	0x0b, r20	; 11
 74e:	74 cf       	rjmp	.-280    	; 0x638 <doReturn>

00000750 <__udivmodsi4>:
 750:	a1 e2       	ldi	r26, 0x21	; 33
 752:	1a 2e       	mov	r1, r26
 754:	aa 1b       	sub	r26, r26
 756:	bb 1b       	sub	r27, r27
 758:	fd 01       	movw	r30, r26
 75a:	0d c0       	rjmp	.+26     	; 0x776 <__udivmodsi4_ep>

0000075c <__udivmodsi4_loop>:
 75c:	aa 1f       	adc	r26, r26
 75e:	bb 1f       	adc	r27, r27
 760:	ee 1f       	adc	r30, r30
 762:	ff 1f       	adc	r31, r31
 764:	a2 17       	cp	r26, r18
 766:	b3 07       	cpc	r27, r19
 768:	e4 07       	cpc	r30, r20
 76a:	f5 07       	cpc	r31, r21
 76c:	20 f0       	brcs	.+8      	; 0x776 <__udivmodsi4_ep>
 76e:	a2 1b       	sub	r26, r18
 770:	b3 0b       	sbc	r27, r19
 772:	e4 0b       	sbc	r30, r20
 774:	f5 0b       	sbc	r31, r21

00000776 <__udivmodsi4_ep>:
 776:	66 1f       	adc	r22, r22
 778:	77 1f       	adc	r23, r23
 77a:	88 1f       	adc	r24, r24
 77c:	99 1f       	adc	r25, r25
 77e:	1a 94       	dec	r1
 780:	69 f7       	brne	.-38     	; 0x75c <__udivmodsi4_loop>
 782:	60 95       	com	r22
 784:	70 95       	com	r23
 786:	80 95       	com	r24
 788:	90 95       	com	r25
 78a:	9b 01       	movw	r18, r22
 78c:	ac 01       	movw	r20, r24
 78e:	bd 01       	movw	r22, r26
 790:	cf 01       	movw	r24, r30
 792:	08 95       	ret

00000794 <_exit>:
 794:	f8 94       	cli

00000796 <__stop_program>:
 796:	ff cf       	rjmp	.-2      	; 0x796 <__stop_program>
